TN:
SF:C:
Users
USER
Documents
UFMG
6
teste
testes_tp
build/C:/Qt/6.6.0/mingw_64/include/QtCore/qpair.h
FN:19,_Z9qMakePairIP15QTypedArrayDataI7QStringEPS1_EDcOT_OT0_
FNDA:0,_Z9qMakePairIP15QTypedArrayDataI7QStringEPS1_EDcOT_OT0_
DA:19,0
DA:22,0
end_of_record
SF:C:
Users
USER
Documents
UFMG
6
teste
testes_tp
build/C:/Qt/Tools/mingw1120_64/lib/gcc/x86_64-w64-mingw32/11.2.0/include/c++/bits/char_traits.h
FN:106,_ZN9__gnu_cxx11char_traitsIcE2eqERKcS3_
FNDA:0,_ZN9__gnu_cxx11char_traitsIcE2eqERKcS3_
FN:167,_ZN9__gnu_cxx11char_traitsIcE6lengthEPKc
FNDA:0,_ZN9__gnu_cxx11char_traitsIcE6lengthEPKc
FN:178,_ZN9__gnu_cxx11char_traitsIcE4findEPKcyRS2_
FNDA:0,_ZN9__gnu_cxx11char_traitsIcE4findEPKcyRS2_
FN:365,_ZNSt11char_traitsIcE6lengthEPKc
FNDA:0,_ZNSt11char_traitsIcE6lengthEPKc
FN:375,_ZNSt11char_traitsIcE4findEPKcyRS1_
FNDA:846,_ZNSt11char_traitsIcE4findEPKcyRS1_
DA:106,0
DA:107,0
DA:167,0
DA:170,0
DA:171,0
DA:172,0
DA:173,0
DA:178,0
DA:181,0
DA:182,0
DA:183,0
DA:184,0
DA:262,0
DA:365,0
DA:368,0
DA:369,0
DA:371,0
DA:375,846
DA:377,846
DA:378,0
DA:380,846
DA:382,846
DA:383,0
DA:385,846
end_of_record
SF:C:
Users
USER
Documents
UFMG
6
teste
testes_tp
build/C:/Qt/6.6.0/mingw_64/include/QtCore/qdebug.h
FN:87,_ZN6QDebug10maybeSpaceEv
FNDA:0,_ZN6QDebug10maybeSpaceEv
FN:116,_ZN6QDebuglsEPKc
FNDA:0,_ZN6QDebuglsEPKc
DA:87,0
DA:116,0
end_of_record
SF:C:
Users
USER
Documents
UFMG
6
teste
testes_tp
build/ui_adicionar_contato.h
FN:45,_ZN20Ui_adicionar_contato7setupUiEP7QDialog
FNDA:3,_ZN20Ui_adicionar_contato7setupUiEP7QDialog
FN:185,_ZN20Ui_adicionar_contato13retranslateUiEP7QDialog
FNDA:3,_ZN20Ui_adicionar_contato13retranslateUiEP7QDialog
DA:45,3
DA:47,3
DA:48,3
DA:49,3
DA:50,3
DA:51,3
DA:52,3
DA:53,3
DA:54,3
DA:55,3
DA:56,3
DA:57,3
DA:58,3
DA:59,3
DA:60,3
DA:61,3
DA:62,6
DA:63,3
DA:64,3
DA:65,3
DA:66,3
DA:67,3
DA:73,3
DA:75,3
DA:76,3
DA:77,3
DA:79,3
DA:82,3
DA:84,3
DA:85,3
DA:86,3
DA:87,3
DA:88,3
DA:89,6
DA:90,3
DA:91,3
DA:92,3
DA:98,3
DA:100,3
DA:101,3
DA:102,3
DA:104,3
DA:107,3
DA:109,3
DA:110,3
DA:111,3
DA:112,3
DA:113,3
DA:114,3
DA:120,3
DA:122,3
DA:123,3
DA:124,3
DA:126,3
DA:129,3
DA:131,3
DA:132,3
DA:133,3
DA:134,3
DA:135,3
DA:136,3
DA:141,3
DA:143,3
DA:144,3
DA:145,3
DA:147,3
DA:150,3
DA:152,3
DA:153,3
DA:154,3
DA:155,3
DA:156,3
DA:163,3
DA:165,3
DA:166,3
DA:167,3
DA:174,3
DA:177,3
DA:180,3
DA:182,3
DA:183,3
DA:185,3
DA:187,3
DA:188,3
DA:189,3
DA:190,3
DA:191,3
DA:192,3
DA:193,3
DA:194,3
DA:195,3
DA:196,3
DA:197,3
DA:198,3
DA:199,3
DA:200,3
DA:201,3
DA:202,3
end_of_record
SF:C:
Users
USER
Documents
UFMG
6
teste
testes_tp
build/C:/Qt/Tools/mingw1120_64/lib/gcc/x86_64-w64-mingw32/11.2.0/include/c++/initializer_list
FN:71,_ZNKSt16initializer_listI7QStringE4sizeEv
FNDA:0,_ZNKSt16initializer_listI7QStringE4sizeEv
FN:75,_ZNKSt16initializer_listI7QStringE5beginEv
FNDA:0,_ZNKSt16initializer_listI7QStringE5beginEv
FN:79,_ZNKSt16initializer_listI7QStringE3endEv
FNDA:0,_ZNKSt16initializer_listI7QStringE3endEv
DA:71,0
DA:75,0
DA:79,0
end_of_record
SF:C:
Users
USER
Documents
UFMG
6
teste
testes_tp
build/C:/Qt/6.6.0/mingw_64/include/QtCore/qbytearrayview.h
FN:67,_ZN9QtPrivateL19lengthHelperPointerIcEExPKT_
FNDA:0,_ZN9QtPrivateL19lengthHelperPointerIcEExPKT_
FN:116,_ZN14QByteArrayView21lengthHelperCharArrayEPKcy
FNDA:283,_ZN14QByteArrayView21lengthHelperCharArrayEPKcy
FN:126,_ZN14QByteArrayView10castHelperEPKc
FNDA:0,_ZN14QByteArrayView10castHelperEPKc
FN:136,_ZN14QByteArrayViewC1IcLb1EEEPKT_x
FNDA:0,_ZN14QByteArrayViewC1IcLb1EEEPKT_x
FN:149,_ZN14QByteArrayViewC1IPKcLb1EEERKT_
FNDA:0,_ZN14QByteArrayViewC1IPKcLb1EEERKT_
FN:166,_ZN14QByteArrayViewC1ILy135EEERAT__Kc
FNDA:62,_ZN14QByteArrayViewC1ILy135EEERAT__Kc
FN:166,_ZN14QByteArrayViewC1ILy106EEERAT__Kc
FNDA:8,_ZN14QByteArrayViewC1ILy106EEERAT__Kc
FN:166,_ZN14QByteArrayViewC1ILy23EEERAT__Kc
FNDA:20,_ZN14QByteArrayViewC1ILy23EEERAT__Kc
FN:166,_ZN14QByteArrayViewC1ILy107EEERAT__Kc
FNDA:12,_ZN14QByteArrayViewC1ILy107EEERAT__Kc
FN:166,_ZN14QByteArrayViewC1ILy12EEERAT__Kc
FNDA:10,_ZN14QByteArrayViewC1ILy12EEERAT__Kc
FN:166,_ZN14QByteArrayViewC1ILy221EEERAT__Kc
FNDA:9,_ZN14QByteArrayViewC1ILy221EEERAT__Kc
DA:67,0
DA:69,0
DA:116,283
DA:118,283
DA:119,283
DA:120,283
DA:126,0
DA:127,0
DA:136,0
DA:137,0
DA:138,0
DA:149,0
DA:151,0
DA:166,62
DA:167,62
DA:166,8
DA:167,8
DA:166,20
DA:167,20
DA:166,12
DA:167,12
DA:166,10
DA:167,10
DA:166,9
DA:167,9
end_of_record
SF:C:
Users
USER
Documents
UFMG
6
teste
testes_tp
build/C:/Qt/6.6.0/mingw_64/include/QtCore/qstring.h
FN:178,_ZN7QStringC1EOS_
FNDA:137,_ZN7QStringC1EOS_
FN:188,_ZNK7QString7isEmptyEv
FNDA:34,_ZNK7QString7isEmptyEv
FN:463,_ZN7QStringpLERKS_
FNDA:32,_ZN7QStringpLERKS_
FN:782,_ZN7QStringC1EPKc
FNDA:0,_ZN7QStringC1EPKc
FN:806,_ZN7QStringpLEPKc
FNDA:26,_ZN7QStringpLEPKc
FN:1107,_ZN7QStringC1ERKS_
FNDA:0,_ZN7QStringC1ERKS_
FN:1168,_ZN7QStringC1Ev
FNDA:0,_ZN7QStringC1Ev
FN:1169,_ZN7QStringD1Ev
FNDA:0,_ZN7QStringD1Ev
FN:1293,_ZplO7QStringRKS_
FNDA:22,_ZplO7QStringRKS_
FN:1304,_ZplO7QStringPKc
FNDA:26,_ZplO7QStringPKc
FN:1306,_ZplPKcRK7QString
FNDA:10,_ZplPKcRK7QString
DA:178,137
DA:188,34
DA:463,32
DA:782,0
DA:783,0
DA:784,0
DA:806,26
DA:807,26
DA:1107,0
DA:1108,0
DA:1168,0
DA:1169,0
DA:1293,22
DA:1294,22
DA:1304,26
DA:1305,26
DA:1306,10
DA:1307,10
end_of_record
SF:C:
Users
USER
Documents
UFMG
6
teste
testes_tp
build/C:/Qt/Tools/mingw1120_64/lib/gcc/x86_64-w64-mingw32/11.2.0/include/c++/bits/atomic_base.h
FN:104,_ZStanSt12memory_orderSt23__memory_order_modifier
FNDA:0,_ZStanSt12memory_orderSt23__memory_order_modifier
DA:104,0
DA:106,0
DA:477,0
DA:481,0
DA:636,0
DA:646,0
end_of_record
SF:C:
Users
USER
Documents
UFMG
6
teste
testes_tp
build/..
adicionar_contato.h
end_of_record
SF:C:
Users
USER
Documents
UFMG
6
teste
testes_tp
build/C:/Qt/Tools/mingw1120_64/lib/gcc/x86_64-w64-mingw32/11.2.0/include/c++/bits/stl_iterator_base_funcs.h
FN:98,_ZSt10__distanceIPKcENSt15iterator_traitsIT_E15difference_typeES3_S3_St26random_access_iterator_tag
FNDA:846,_ZSt10__distanceIPKcENSt15iterator_traitsIT_E15difference_typeES3_S3_St26random_access_iterator_tag
FN:138,_ZSt8distanceIPKcENSt15iterator_traitsIT_E15difference_typeES3_S3_
FNDA:846,_ZSt8distanceIPKcENSt15iterator_traitsIT_E15difference_typeES3_S3_
FN:174,_ZSt9__advanceIPKcxEvRT_T0_St26random_access_iterator_tag
FNDA:0,_ZSt9__advanceIPKcxEvRT_T0_St26random_access_iterator_tag
FN:202,_ZSt7advanceIPKcxEvRT_T0_
FNDA:0,_ZSt7advanceIPKcxEvRT_T0_
FN:213,_ZSt4nextIPKcET_S2_NSt15iterator_traitsIS2_E15difference_typeE
FNDA:0,_ZSt4nextIPKcET_S2_NSt15iterator_traitsIS2_E15difference_typeE
DA:98,846
DA:104,846
DA:138,846
DA:141,846
DA:142,1692
DA:174,0
DA:185,0
DA:186,0
DA:202,0
DA:205,0
DA:206,0
DA:207,0
DA:213,0
DA:218,0
DA:219,0
end_of_record
SF:C:
Users
USER
Documents
UFMG
6
teste
testes_tp
build/C:/Qt/6.6.0/mingw_64/include/QtCore/qflags.h
FN:73,_ZN6QFlagsIN2Qt13AlignmentFlagEEC1Ev
FNDA:218,_ZN6QFlagsIN2Qt13AlignmentFlagEEC1Ev
FN:73,_ZN6QFlagsIN2Qt10WindowTypeEEC1Ev
FNDA:0,_ZN6QFlagsIN2Qt10WindowTypeEEC1Ev
DA:73,218
DA:73,0
end_of_record
SF:C:
Users
USER
Documents
UFMG
6
teste
testes_tp
build/C:/Qt/6.6.0/mingw_64/include/QtCore/qsize.h
FN:118,_ZN5QSizeC1Eii
FNDA:0,_ZN5QSizeC1Eii
DA:118,0
end_of_record
SF:C:
Users
USER
Documents
UFMG
6
teste
testes_tp
build/C:/Qt/Tools/mingw1120_64/lib/gcc/x86_64-w64-mingw32/11.2.0/include/c++/bits/stl_construct.h
FN:135,_ZSt8_DestroyI7QStringEvPT_
FNDA:0,_ZSt8_DestroyI7QStringEvPT_
FN:149,_ZNSt12_Destroy_auxILb0EE9__destroyIP7QStringEEvT_S4_
FNDA:0,_ZNSt12_Destroy_auxILb0EE9__destroyIP7QStringEEvT_S4_
FN:171,_ZSt8_DestroyIP7QStringEvT_S2_
FNDA:0,_ZSt8_DestroyIP7QStringEvT_S2_
FN:240,_ZSt7destroyIP7QStringEvT_S2_
FNDA:0,_ZSt7destroyIP7QStringEvT_S2_
DA:135,0
DA:140,0
DA:142,0
DA:149,0
DA:151,0
DA:152,0
DA:153,0
DA:171,0
DA:185,0
DA:186,0
DA:240,0
DA:242,0
DA:243,0
end_of_record
SF:C:
Users
USER
Documents
UFMG
6
teste
testes_tp
build/C:/Qt/Tools/mingw1120_64/lib/gcc/x86_64-w64-mingw32/11.2.0/include/c++/bits/move.h
FN:49,_ZSt11__addressofI7QStringEPT_RS1_
FNDA:0,_ZSt11__addressofI7QStringEPT_RS1_
FN:77,_ZSt7forwardIP7QStringEOT_RNSt16remove_referenceIS2_E4typeE
FNDA:0,_ZSt7forwardIP7QStringEOT_RNSt16remove_referenceIS2_E4typeE
FN:77,_ZSt7forwardIP15QTypedArrayDataI7QStringEEOT_RNSt16remove_referenceIS4_E4typeE
FNDA:0,_ZSt7forwardIP15QTypedArrayDataI7QStringEEOT_RNSt16remove_referenceIS4_E4typeE
FN:104,_ZSt4moveIR7QStringEONSt16remove_referenceIT_E4typeEOS3_
FNDA:169,_ZSt4moveIR7QStringEONSt16remove_referenceIT_E4typeEOS3_
DA:49,0
DA:50,0
DA:77,0
DA:78,0
DA:77,0
DA:78,0
DA:104,169
DA:105,169
end_of_record
SF:C:
Users
USER
Documents
UFMG
6
teste
testes_tp
build/C:/Qt/6.6.0/mingw_64/include/QtCore/qarraydatapointer.h
FN:31,_ZN17QArrayDataPointerIDsEC1Ev
FNDA:0,_ZN17QArrayDataPointerIDsEC1Ev
FN:37,_ZN17QArrayDataPointerIDsEC1ERKS0_
FNDA:0,_ZN17QArrayDataPointerIDsEC1ERKS0_
FN:50,_ZN17QArrayDataPointerI7QStringEC1ESt4pairIP15QTypedArrayDataIS0_EPS0_Ex
FNDA:0,_ZN17QArrayDataPointerI7QStringEC1ESt4pairIP15QTypedArrayDataIS0_EPS0_Ex
FN:70,_ZN17QArrayDataPointerIDsEC1EOS0_
FNDA:137,_ZN17QArrayDataPointerIDsEC1EOS0_
FN:85,_ZN17QArrayDataPointerIDsEptEv
FNDA:0,_ZN17QArrayDataPointerIDsEptEv
FN:85,_ZN17QArrayDataPointerI7QStringEptEv
FNDA:0,_ZN17QArrayDataPointerI7QStringEptEv
FN:100,_ZN17QArrayDataPointerIDsED1Ev
FNDA:0,_ZN17QArrayDataPointerIDsED1Ev
FN:100,_ZN17QArrayDataPointerI7QStringED1Ev
FNDA:0,_ZN17QArrayDataPointerI7QStringED1Ev
FN:113,_ZN17QArrayDataPointerI7QStringE4dataEv
FNDA:0,_ZN17QArrayDataPointerI7QStringE4dataEv
FN:116,_ZN17QArrayDataPointerI7QStringE5beginEv
FNDA:0,_ZN17QArrayDataPointerI7QStringE5beginEv
FN:117,_ZN17QArrayDataPointerI7QStringE3endEv
FNDA:0,_ZN17QArrayDataPointerI7QStringE3endEv
FN:412,_ZN17QArrayDataPointerIDsE3refEv
FNDA:0,_ZN17QArrayDataPointerIDsE3refEv
FN:413,_ZN17QArrayDataPointerI7QStringE5derefEv
FNDA:0,_ZN17QArrayDataPointerI7QStringE5derefEv
FN:413,_ZN17QArrayDataPointerIDsE5derefEv
FNDA:0,_ZN17QArrayDataPointerIDsE5derefEv
FN:414,_ZNK17QArrayDataPointerI7QStringE9isMutableEv
FNDA:0,_ZNK17QArrayDataPointerI7QStringE9isMutableEv
FN:415,_ZNK17QArrayDataPointerI7QStringE8isSharedEv
FNDA:0,_ZNK17QArrayDataPointerI7QStringE8isSharedEv
FN:426,_ZNK17QArrayDataPointerI7QStringE16freeSpaceAtBeginEv
FNDA:0,_ZNK17QArrayDataPointerI7QStringE16freeSpaceAtBeginEv
FN:433,_ZNK17QArrayDataPointerI7QStringE14freeSpaceAtEndEv
FNDA:0,_ZNK17QArrayDataPointerI7QStringE14freeSpaceAtEndEv
DA:31,0
DA:32,0
DA:34,0
DA:37,0
DA:38,0
DA:40,0
DA:41,0
DA:50,0
DA:51,0
DA:53,0
DA:70,137
DA:71,137
DA:73,137
DA:74,137
DA:75,137
DA:76,137
DA:85,0
DA:87,0
DA:85,0
DA:87,0
DA:100,0
DA:102,0
DA:103,0
DA:104,0
DA:106,0
DA:100,0
DA:102,0
DA:103,0
DA:104,0
DA:106,0
DA:113,0
DA:116,0
DA:117,0
DA:412,0
DA:413,0
DA:413,0
DA:414,0
DA:415,0
DA:426,0
DA:428,0
DA:429,0
DA:430,0
DA:433,0
DA:435,0
DA:436,0
DA:437,0
end_of_record
SF:C:
Users
USER
Documents
UFMG
6
teste
testes_tp
build/C:/Qt/6.6.0/mingw_64/include/QtGui/qfont.h
FN:314,_ZN5QFont7setBoldEb
FNDA:5,_ZN5QFont7setBoldEb
FN:322,_ZN5QFont9setItalicEb
FNDA:5,_ZN5QFont9setItalicEb
DA:314,5
DA:315,5
DA:322,5
DA:323,5
DA:324,5
end_of_record
SF:C:
Users
USER
Documents
UFMG
6
teste
testes_tp
build/C:/Qt/6.6.0/mingw_64/include/QtCore/qlist.h
FN:283,_ZN5QListI7QStringEC1ESt16initializer_listIS0_E
FNDA:0,_ZN5QListI7QStringEC1ESt16initializer_listIS0_E
DA:283,0
DA:284,0
DA:286,0
DA:287,0
DA:288,0
end_of_record
SF:C:
Users
USER
Documents
UFMG
6
teste
testes_tp
build/C:/Qt/Tools/mingw1120_64/lib/gcc/x86_64-w64-mingw32/11.2.0/include/c++/new
FN:174,_ZnwyPv
FNDA:0,_ZnwyPv
DA:174,0
DA:175,0
end_of_record
SF:C:
Users
USER
Documents
UFMG
6
teste
testes_tp
build/..
adicionar_contato.cpp
FN:4,_ZN17adicionar_contatoC2EP7QWidget
FNDA:3,_ZN17adicionar_contatoC2EP7QWidget
FN:11,_ZN17adicionar_contatoD0Ev
FNDA:0,_ZN17adicionar_contatoD0Ev
FN:11,_ZN17adicionar_contatoD2Ev
FNDA:3,_ZN17adicionar_contatoD2Ev
FN:16,_ZN17adicionar_contato20on_adicionar_clickedEv
FNDA:2,_ZN17adicionar_contato20on_adicionar_clickedEv
FN:43,_ZN17adicionar_contato19on_cancelar_clickedEv
FNDA:0,_ZN17adicionar_contato19on_cancelar_clickedEv
FN:48,_ZNK17adicionar_contato26get_adicionar_query_resultEv
FNDA:2,_ZNK17adicionar_contato26get_adicionar_query_resultEv
DA:4,3
DA:6,3
DA:8,3
DA:9,3
DA:11,0
DA:14,0
DA:11,3
DA:13,3
DA:14,3
DA:16,2
DA:18,2
DA:19,2
DA:20,2
DA:21,2
DA:22,2
DA:24,4
DA:26,2
DA:27,2
DA:28,2
DA:29,2
DA:30,2
DA:31,2
DA:32,2
DA:33,2
DA:34,2
DA:37,0
DA:39,2
DA:40,2
DA:43,0
DA:45,0
DA:46,0
DA:48,2
DA:49,2
end_of_record
SF:C:
Users
USER
Documents
UFMG
6
teste
testes_tp
build/C:/Qt/6.6.0/mingw_64/include/QtCore/qlogging.h
FN:43,_ZN18QMessageLogContextC1EPKciS1_S1_
FNDA:0,_ZN18QMessageLogContextC1EPKciS1_S1_
FN:72,_ZN14QMessageLoggerC1EPKciS1_
FNDA:0,_ZN14QMessageLoggerC1EPKciS1_
DA:43,0
DA:44,0
DA:72,0
DA:73,0
end_of_record
SF:C:
Users
USER
Documents
UFMG
6
teste
testes_tp
build/C:/Qt/Tools/mingw1120_64/lib/gcc/x86_64-w64-mingw32/11.2.0/include/c++/bits/stl_iterator_base_types.h
FN:238,_ZSt19__iterator_categoryIPKcENSt15iterator_traitsIT_E17iterator_categoryERKS3_
FNDA:846,_ZSt19__iterator_categoryIPKcENSt15iterator_traitsIT_E17iterator_categoryERKS3_
DA:238,846
DA:239,846
end_of_record
SF:C:
Users
USER
Documents
UFMG
6
teste
testes_tp
build/C:/Qt/6.6.0/mingw_64/include/QtCore/qbasicatomic.h
FN:38,_ZNK19QBasicAtomicIntegerIiE11loadRelaxedEv
FNDA:0,_ZNK19QBasicAtomicIntegerIiE11loadRelaxedEv
FN:49,_ZN19QBasicAtomicIntegerIiE3refEv
FNDA:0,_ZN19QBasicAtomicIntegerIiE3refEv
FN:50,_ZN19QBasicAtomicIntegerIiE5derefEv
FNDA:0,_ZN19QBasicAtomicIntegerIiE5derefEv
DA:38,0
DA:49,0
DA:50,0
end_of_record
SF:C:
Users
USER
Documents
UFMG
6
teste
testes_tp
build/C:/Qt/6.6.0/mingw_64/include/QtCore/qrect.h
FN:154,_ZN5QRectC1Eiiii
FNDA:0,_ZN5QRectC1Eiiii
DA:154,0
DA:155,0
end_of_record
SF:C:
Users
USER
Documents
UFMG
6
teste
testes_tp
build/C:/Qt/6.6.0/mingw_64/include/QtCore/qarraydata.h
FN:43,_ZNK10QArrayData22constAllocatedCapacityEv
FNDA:0,_ZNK10QArrayData22constAllocatedCapacityEv
FN:49,_ZN10QArrayData3refEv
FNDA:0,_ZN10QArrayData3refEv
FN:56,_ZN10QArrayData5derefEv
FNDA:0,_ZN10QArrayData5derefEv
FN:61,_ZNK10QArrayData8isSharedEv
FNDA:0,_ZNK10QArrayData8isSharedEv
FN:101,_ZN15QTypedArrayDataI7QStringE8allocateExN10QArrayData16AllocationOptionE
FNDA:0,_ZN15QTypedArrayDataI7QStringE8allocateExN10QArrayData16AllocationOptionE
FN:127,_ZN15QTypedArrayDataI7QStringE9dataStartEP10QArrayDatax
FNDA:0,_ZN15QTypedArrayDataI7QStringE9dataStartEP10QArrayDatax
DA:43,0
DA:45,0
DA:49,0
DA:51,0
DA:52,0
DA:56,0
DA:58,0
DA:61,0
DA:63,0
DA:101,0
DA:105,0
DA:107,0
DA:109,0
DA:127,0
DA:130,0
DA:131,0
DA:132,0
DA:133,0
end_of_record
SF:C:
Users
USER
Documents
UFMG
6
teste
testes_tp
build/C:/Qt/6.6.0/mingw_64/include/QtCore/qatomic_cxx11.h
FN:199,_ZN10QAtomicOpsIiE11loadRelaxedIiEET_RKSt6atomicIS2_E
FNDA:0,_ZN10QAtomicOpsIiE11loadRelaxedIiEET_RKSt6atomicIS2_E
FN:243,_ZN10QAtomicOpsIiE3refIiEEbRSt6atomicIT_E
FNDA:0,_ZN10QAtomicOpsIiE3refIiEEbRSt6atomicIT_E
FN:262,_ZN10QAtomicOpsIiE5derefIiEEbRSt6atomicIT_E
FNDA:0,_ZN10QAtomicOpsIiE5derefIiEEbRSt6atomicIT_E
DA:199,0
DA:201,0
DA:243,0
DA:258,0
DA:262,0
DA:265,0
end_of_record
SF:C:
Users
USER
Documents
UFMG
6
teste
testes_tp
build/C:/Qt/6.6.0/mingw_64/include/QtCore/qutf8stringview.h
FN:148,_ZN20QBasicUtf8StringViewILb0EE10castHelperEPKc
FNDA:26,_ZN20QBasicUtf8StringViewILb0EE10castHelperEPKc
FN:158,_ZN20QBasicUtf8StringViewILb0EEC1IcLb1EEEPKT_x
FNDA:26,_ZN20QBasicUtf8StringViewILb0EEC1IcLb1EEEPKT_x
FN:174,_ZN20QBasicUtf8StringViewILb0EEC1IPKcLb1EEERKT_
FNDA:26,_ZN20QBasicUtf8StringViewILb0EEC1IPKcLb1EEERKT_
DA:148,26
DA:149,26
DA:158,26
DA:159,26
DA:160,26
DA:174,26
DA:176,26
end_of_record
SF:C:
Users
USER
Documents
UFMG
6
teste
testes_tp
build/C:/Qt/6.6.0/mingw_64/include/QtWidgets/qwidget.h
FN:423,_ZN7QWidget8setFocusEv
FNDA:2,_ZN7QWidget8setFocusEv
FN:883,_ZN7QWidget6resizeEii
FNDA:34,_ZN7QWidget6resizeEii
DA:423,2
DA:883,34
DA:884,34
end_of_record
SF:C:
Users
USER
Documents
UFMG
6
teste
testes_tp
build/C:/Qt/Tools/mingw1120_64/lib/gcc/x86_64-w64-mingw32/11.2.0/include/c++/bits/range_access.h
FN:310,_ZSt4dataIKcLy8EEPT_RAT0__S1_
FNDA:101,_ZSt4dataIKcLy8EEPT_RAT0__S1_
FN:310,_ZSt4dataIKcLy19EEPT_RAT0__S1_
FNDA:79,_ZSt4dataIKcLy19EEPT_RAT0__S1_
FN:310,_ZSt4dataIKcLy5EEPT_RAT0__S1_
FNDA:19,_ZSt4dataIKcLy5EEPT_RAT0__S1_
FN:310,_ZSt4dataIKcLy6EEPT_RAT0__S1_
FNDA:52,_ZSt4dataIKcLy6EEPT_RAT0__S1_
FN:310,_ZSt4dataIKcLy17EEPT_RAT0__S1_
FNDA:105,_ZSt4dataIKcLy17EEPT_RAT0__S1_
FN:310,_ZSt4dataIKcLy15EEPT_RAT0__S1_
FNDA:42,_ZSt4dataIKcLy15EEPT_RAT0__S1_
FN:310,_ZSt4dataIKcLy13EEPT_RAT0__S1_
FNDA:24,_ZSt4dataIKcLy13EEPT_RAT0__S1_
FN:310,_ZSt4dataIKcLy18EEPT_RAT0__S1_
FNDA:9,_ZSt4dataIKcLy18EEPT_RAT0__S1_
FN:310,_ZSt4dataIKcLy10EEPT_RAT0__S1_
FNDA:53,_ZSt4dataIKcLy10EEPT_RAT0__S1_
FN:310,_ZSt4dataIKcLy9EEPT_RAT0__S1_
FNDA:6,_ZSt4dataIKcLy9EEPT_RAT0__S1_
DA:310,101
DA:311,101
DA:310,79
DA:311,79
DA:310,19
DA:311,19
DA:310,52
DA:311,52
DA:310,105
DA:311,105
DA:310,42
DA:311,42
DA:310,24
DA:311,24
DA:310,9
DA:311,9
DA:310,53
DA:311,53
DA:310,6
DA:311,6
end_of_record
SF:C:
Users
USER
Documents
UFMG
6
teste
testes_tp
build/C:/Qt/6.6.0/mingw_64/include/QtCore/qanystringview.h
FN:101,_ZN14QAnyStringView29isAsciiOnlyCharsAtCompileTimeIKcEEbPT_x
FNDA:563,_ZN14QAnyStringView29isAsciiOnlyCharsAtCompileTimeIKcEEbPT_x
FN:131,_ZN14QAnyStringView10encodeTypeIcEEyPKT_x
FNDA:563,_ZN14QAnyStringView10encodeTypeIcEEyPKT_x
FN:166,_ZN14QAnyStringView21lengthHelperContainerIcLy17EEExRAT0__KT_
FNDA:105,_ZN14QAnyStringView21lengthHelperContainerIcLy17EEExRAT0__KT_
FN:166,_ZN14QAnyStringView21lengthHelperContainerIcLy9EEExRAT0__KT_
FNDA:6,_ZN14QAnyStringView21lengthHelperContainerIcLy9EEExRAT0__KT_
FN:166,_ZN14QAnyStringView21lengthHelperContainerIcLy10EEExRAT0__KT_
FNDA:53,_ZN14QAnyStringView21lengthHelperContainerIcLy10EEExRAT0__KT_
FN:166,_ZN14QAnyStringView21lengthHelperContainerIcLy18EEExRAT0__KT_
FNDA:9,_ZN14QAnyStringView21lengthHelperContainerIcLy18EEExRAT0__KT_
FN:166,_ZN14QAnyStringView21lengthHelperContainerIcLy13EEExRAT0__KT_
FNDA:24,_ZN14QAnyStringView21lengthHelperContainerIcLy13EEExRAT0__KT_
FN:166,_ZN14QAnyStringView21lengthHelperContainerIcLy15EEExRAT0__KT_
FNDA:42,_ZN14QAnyStringView21lengthHelperContainerIcLy15EEExRAT0__KT_
FN:166,_ZN14QAnyStringView21lengthHelperContainerIcLy6EEExRAT0__KT_
FNDA:52,_ZN14QAnyStringView21lengthHelperContainerIcLy6EEExRAT0__KT_
FN:166,_ZN14QAnyStringView21lengthHelperContainerIcLy5EEExRAT0__KT_
FNDA:19,_ZN14QAnyStringView21lengthHelperContainerIcLy5EEExRAT0__KT_
FN:166,_ZN14QAnyStringView21lengthHelperContainerIcLy19EEExRAT0__KT_
FNDA:79,_ZN14QAnyStringView21lengthHelperContainerIcLy19EEExRAT0__KT_
FN:166,_ZN14QAnyStringView21lengthHelperContainerIcLy8EEExRAT0__KT_
FNDA:101,_ZN14QAnyStringView21lengthHelperContainerIcLy8EEExRAT0__KT_
FN:186,_ZN14QAnyStringViewC1IcLb1EEEPKT_x
FNDA:563,_ZN14QAnyStringViewC1IcLb1EEEPKT_x
FN:214,_ZN14QAnyStringViewC1IA6_cLb1EEERKT_
FNDA:52,_ZN14QAnyStringViewC1IA6_cLb1EEERKT_
FN:214,_ZN14QAnyStringViewC1IA17_cLb1EEERKT_
FNDA:105,_ZN14QAnyStringViewC1IA17_cLb1EEERKT_
FN:214,_ZN14QAnyStringViewC1IA15_cLb1EEERKT_
FNDA:42,_ZN14QAnyStringViewC1IA15_cLb1EEERKT_
FN:214,_ZN14QAnyStringViewC1IA5_cLb1EEERKT_
FNDA:19,_ZN14QAnyStringViewC1IA5_cLb1EEERKT_
FN:214,_ZN14QAnyStringViewC1IA13_cLb1EEERKT_
FNDA:24,_ZN14QAnyStringViewC1IA13_cLb1EEERKT_
FN:214,_ZN14QAnyStringViewC1IA18_cLb1EEERKT_
FNDA:9,_ZN14QAnyStringViewC1IA18_cLb1EEERKT_
FN:214,_ZN14QAnyStringViewC1IA19_cLb1EEERKT_
FNDA:79,_ZN14QAnyStringViewC1IA19_cLb1EEERKT_
FN:214,_ZN14QAnyStringViewC1IA10_cLb1EEERKT_
FNDA:53,_ZN14QAnyStringViewC1IA10_cLb1EEERKT_
FN:214,_ZN14QAnyStringViewC1IA9_cLb1EEERKT_
FNDA:6,_ZN14QAnyStringViewC1IA9_cLb1EEERKT_
FN:214,_ZN14QAnyStringViewC1IA8_cLb1EEERKT_
FNDA:101,_ZN14QAnyStringViewC1IA8_cLb1EEERKT_
DA:101,563
DA:114,563
DA:131,563
DA:134,563
DA:135,563
DA:136,563
DA:137,563
DA:139,563
DA:166,101
DA:168,101
DA:169,101
DA:170,101
DA:166,79
DA:168,79
DA:169,79
DA:170,79
DA:166,19
DA:168,19
DA:169,19
DA:170,19
DA:166,52
DA:168,52
DA:169,52
DA:170,52
DA:166,105
DA:168,105
DA:169,105
DA:170,105
DA:166,42
DA:168,42
DA:169,42
DA:170,42
DA:166,24
DA:168,24
DA:169,24
DA:170,24
DA:166,9
DA:168,9
DA:169,9
DA:170,9
DA:166,53
DA:168,53
DA:169,53
DA:170,53
DA:166,6
DA:168,6
DA:169,6
DA:170,6
DA:186,563
DA:187,563
DA:189,563
DA:214,101
DA:215,101
DA:214,79
DA:215,79
DA:214,19
DA:215,19
DA:214,52
DA:215,52
DA:214,105
DA:215,105
DA:214,42
DA:215,42
DA:214,24
DA:215,24
DA:214,9
DA:215,9
DA:214,53
DA:215,53
DA:214,6
DA:215,6
end_of_record
SF:C:
Users
USER
Documents
UFMG
6
teste
testes_tp
build/C:/Qt/Tools/mingw1120_64/lib/gcc/x86_64-w64-mingw32/11.2.0/include/c++/bits/stl_pair.h
FN:352,_ZNSt4pairIP15QTypedArrayDataI7QStringEPS1_EC1IS3_S4_Lb1EEEOT_OT0_
FNDA:0,_ZNSt4pairIP15QTypedArrayDataI7QStringEPS1_EC1IS3_S4_Lb1EEEOT_OT0_
FN:567,_ZSt9make_pairIP15QTypedArrayDataI7QStringEPS1_ESt4pairINSt25__strip_reference_wrapperINSt5decayIT_E4typeEE6__typeENS6_INS7_IT0_E4typeEE6__typeEEOS8_OSD_
FNDA:0,_ZSt9make_pairIP15QTypedArrayDataI7QStringEPS1_ESt4pairINSt25__strip_reference_wrapperINSt5decayIT_E4typeEE6__typeENS6_INS7_IT0_E4typeEE6__typeEEOS8_OSD_
DA:352,0
DA:353,0
DA:567,0
DA:572,0
end_of_record
SF:C:
Users
USER
Documents
UFMG
6
teste
testes_tp
build/C:/Qt/6.6.0/mingw_64/include/QtCore/qarraydataops.h
FN:95,_ZN9QtPrivate12QPodArrayOpsIDsE10destroyAllEv
FNDA:0,_ZN9QtPrivate12QPodArrayOpsIDsE10destroyAllEv
FN:329,_ZN9QtPrivate16QGenericArrayOpsI7QStringE10copyAppendEPKS1_S4_
FNDA:0,_ZN9QtPrivate16QGenericArrayOpsI7QStringE10copyAppendEPKS1_S4_
FN:389,_ZN9QtPrivate16QGenericArrayOpsI7QStringE10destroyAllEv
FNDA:0,_ZN9QtPrivate16QGenericArrayOpsI7QStringE10destroyAllEv
DA:95,0
DA:97,0
DA:98,0
DA:102,0
DA:329,0
DA:331,0
DA:332,0
DA:333,0
DA:334,0
DA:336,0
DA:337,0
DA:339,0
DA:340,0
DA:341,0
DA:342,0
DA:343,0
DA:389,0
DA:391,0
DA:395,0
DA:397,0
DA:398,0
end_of_record
TN:
SF:C:
Users
USER
Documents
UFMG
6
teste
testes_tp
build/C:/Qt/Tools/mingw1120_64/lib/gcc/x86_64-w64-mingw32/11.2.0/include/c++/bits/stl_construct.h
FN:135,_ZSt8_DestroyI7QStringEvPT_
FNDA:0,_ZSt8_DestroyI7QStringEvPT_
FN:149,_ZNSt12_Destroy_auxILb0EE9__destroyIP7QStringEEvT_S4_
FNDA:0,_ZNSt12_Destroy_auxILb0EE9__destroyIP7QStringEEvT_S4_
FN:171,_ZSt8_DestroyIP7QStringEvT_S2_
FNDA:0,_ZSt8_DestroyIP7QStringEvT_S2_
FN:240,_ZSt7destroyIP7QStringEvT_S2_
FNDA:0,_ZSt7destroyIP7QStringEvT_S2_
DA:135,0
DA:140,0
DA:142,0
DA:149,0
DA:151,0
DA:152,0
DA:153,0
DA:171,0
DA:185,0
DA:186,0
DA:240,0
DA:242,0
DA:243,0
end_of_record
SF:C:
Users
USER
Documents
UFMG
6
teste
testes_tp
build/C:/Qt/6.6.0/mingw_64/include/QtCore/qsize.h
FN:118,_ZN5QSizeC1Eii
FNDA:0,_ZN5QSizeC1Eii
DA:118,0
end_of_record
SF:C:
Users
USER
Documents
UFMG
6
teste
testes_tp
build/C:/Qt/Tools/mingw1120_64/lib/gcc/x86_64-w64-mingw32/11.2.0/include/c++/bits/move.h
FN:49,_ZSt11__addressofI7QStringEPT_RS1_
FNDA:0,_ZSt11__addressofI7QStringEPT_RS1_
FN:77,_ZSt7forwardIP7QStringEOT_RNSt16remove_referenceIS2_E4typeE
FNDA:0,_ZSt7forwardIP7QStringEOT_RNSt16remove_referenceIS2_E4typeE
FN:77,_ZSt7forwardIP15QTypedArrayDataI7QStringEEOT_RNSt16remove_referenceIS4_E4typeE
FNDA:0,_ZSt7forwardIP15QTypedArrayDataI7QStringEEOT_RNSt16remove_referenceIS4_E4typeE
FN:104,_ZSt4moveIR7QStringEONSt16remove_referenceIT_E4typeEOS3_
FNDA:0,_ZSt4moveIR7QStringEONSt16remove_referenceIT_E4typeEOS3_
DA:49,0
DA:50,0
DA:77,0
DA:78,0
DA:77,0
DA:78,0
DA:104,0
DA:105,0
end_of_record
SF:C:
Users
USER
Documents
UFMG
6
teste
testes_tp
build/C:/Qt/6.6.0/mingw_64/include/QtGui/qfont.h
FN:314,_ZN5QFont7setBoldEb
FNDA:0,_ZN5QFont7setBoldEb
FN:322,_ZN5QFont9setItalicEb
FNDA:0,_ZN5QFont9setItalicEb
DA:314,0
DA:315,0
DA:322,0
DA:323,0
DA:324,0
end_of_record
SF:C:
Users
USER
Documents
UFMG
6
teste
testes_tp
build/C:/Qt/6.6.0/mingw_64/include/QtCore/qarraydatapointer.h
FN:31,_ZN17QArrayDataPointerIDsEC1Ev
FNDA:0,_ZN17QArrayDataPointerIDsEC1Ev
FN:37,_ZN17QArrayDataPointerIDsEC1ERKS0_
FNDA:0,_ZN17QArrayDataPointerIDsEC1ERKS0_
FN:50,_ZN17QArrayDataPointerI7QStringEC1ESt4pairIP15QTypedArrayDataIS0_EPS0_Ex
FNDA:0,_ZN17QArrayDataPointerI7QStringEC1ESt4pairIP15QTypedArrayDataIS0_EPS0_Ex
FN:70,_ZN17QArrayDataPointerIDsEC1EOS0_
FNDA:0,_ZN17QArrayDataPointerIDsEC1EOS0_
FN:85,_ZN17QArrayDataPointerIDsEptEv
FNDA:0,_ZN17QArrayDataPointerIDsEptEv
FN:85,_ZN17QArrayDataPointerI7QStringEptEv
FNDA:0,_ZN17QArrayDataPointerI7QStringEptEv
FN:100,_ZN17QArrayDataPointerIDsED1Ev
FNDA:0,_ZN17QArrayDataPointerIDsED1Ev
FN:100,_ZN17QArrayDataPointerI7QStringED1Ev
FNDA:0,_ZN17QArrayDataPointerI7QStringED1Ev
FN:113,_ZN17QArrayDataPointerI7QStringE4dataEv
FNDA:0,_ZN17QArrayDataPointerI7QStringE4dataEv
FN:114,_ZNK17QArrayDataPointerIDsE4dataEv
FNDA:0,_ZNK17QArrayDataPointerIDsE4dataEv
FN:116,_ZN17QArrayDataPointerI7QStringE5beginEv
FNDA:0,_ZN17QArrayDataPointerI7QStringE5beginEv
FN:117,_ZN17QArrayDataPointerI7QStringE3endEv
FNDA:0,_ZN17QArrayDataPointerI7QStringE3endEv
FN:412,_ZN17QArrayDataPointerIDsE3refEv
FNDA:0,_ZN17QArrayDataPointerIDsE3refEv
FN:413,_ZN17QArrayDataPointerI7QStringE5derefEv
FNDA:0,_ZN17QArrayDataPointerI7QStringE5derefEv
FN:413,_ZN17QArrayDataPointerIDsE5derefEv
FNDA:0,_ZN17QArrayDataPointerIDsE5derefEv
FN:414,_ZNK17QArrayDataPointerI7QStringE9isMutableEv
FNDA:0,_ZNK17QArrayDataPointerI7QStringE9isMutableEv
FN:415,_ZNK17QArrayDataPointerI7QStringE8isSharedEv
FNDA:0,_ZNK17QArrayDataPointerI7QStringE8isSharedEv
FN:426,_ZNK17QArrayDataPointerI7QStringE16freeSpaceAtBeginEv
FNDA:0,_ZNK17QArrayDataPointerI7QStringE16freeSpaceAtBeginEv
FN:433,_ZNK17QArrayDataPointerI7QStringE14freeSpaceAtEndEv
FNDA:0,_ZNK17QArrayDataPointerI7QStringE14freeSpaceAtEndEv
DA:31,0
DA:32,0
DA:34,0
DA:37,0
DA:38,0
DA:40,0
DA:41,0
DA:50,0
DA:51,0
DA:53,0
DA:70,0
DA:71,0
DA:73,0
DA:74,0
DA:75,0
DA:76,0
DA:85,0
DA:87,0
DA:85,0
DA:87,0
DA:100,0
DA:102,0
DA:103,0
DA:104,0
DA:106,0
DA:100,0
DA:102,0
DA:103,0
DA:104,0
DA:106,0
DA:113,0
DA:114,0
DA:116,0
DA:117,0
DA:412,0
DA:413,0
DA:413,0
DA:414,0
DA:415,0
DA:426,0
DA:428,0
DA:429,0
DA:430,0
DA:433,0
DA:435,0
DA:436,0
DA:437,0
end_of_record
SF:C:
Users
USER
Documents
UFMG
6
teste
testes_tp
build/C:/Qt/Tools/mingw1120_64/lib/gcc/x86_64-w64-mingw32/11.2.0/include/c++/new
FN:174,_ZnwyPv
FNDA:0,_ZnwyPv
DA:174,0
DA:175,0
end_of_record
SF:C:
Users
USER
Documents
UFMG
6
teste
testes_tp
build/C:/Qt/6.6.0/mingw_64/include/QtCore/qlist.h
FN:283,_ZN5QListI7QStringEC1ESt16initializer_listIS0_E
FNDA:0,_ZN5QListI7QStringEC1ESt16initializer_listIS0_E
DA:283,0
DA:284,0
DA:286,0
DA:287,0
DA:288,0
end_of_record
SF:C:
Users
USER
Documents
UFMG
6
teste
testes_tp
build/C:/Qt/Tools/mingw1120_64/lib/gcc/x86_64-w64-mingw32/11.2.0/include/c++/bits/char_traits.h
FN:106,_ZN9__gnu_cxx11char_traitsIcE2eqERKcS3_
FNDA:0,_ZN9__gnu_cxx11char_traitsIcE2eqERKcS3_
FN:167,_ZN9__gnu_cxx11char_traitsIcE6lengthEPKc
FNDA:0,_ZN9__gnu_cxx11char_traitsIcE6lengthEPKc
FN:178,_ZN9__gnu_cxx11char_traitsIcE4findEPKcyRS2_
FNDA:0,_ZN9__gnu_cxx11char_traitsIcE4findEPKcyRS2_
FN:365,_ZNSt11char_traitsIcE6lengthEPKc
FNDA:0,_ZNSt11char_traitsIcE6lengthEPKc
FN:375,_ZNSt11char_traitsIcE4findEPKcyRS1_
FNDA:0,_ZNSt11char_traitsIcE4findEPKcyRS1_
DA:106,0
DA:107,0
DA:167,0
DA:170,0
DA:171,0
DA:172,0
DA:173,0
DA:178,0
DA:181,0
DA:182,0
DA:183,0
DA:184,0
DA:262,0
DA:365,0
DA:368,0
DA:369,0
DA:371,0
DA:375,0
DA:377,0
DA:378,0
DA:380,0
DA:382,0
DA:383,0
DA:385,0
end_of_record
SF:C:
Users
USER
Documents
UFMG
6
teste
testes_tp
build/C:/Qt/6.6.0/mingw_64/include/QtCore/qpair.h
FN:19,_Z9qMakePairIP15QTypedArrayDataI7QStringEPS1_EDcOT_OT0_
FNDA:0,_Z9qMakePairIP15QTypedArrayDataI7QStringEPS1_EDcOT_OT0_
DA:19,0
DA:22,0
end_of_record
SF:C:
Users
USER
Documents
UFMG
6
teste
testes_tp
build/C:/Qt/Tools/mingw1120_64/lib/gcc/x86_64-w64-mingw32/11.2.0/include/c++/initializer_list
FN:71,_ZNKSt16initializer_listI7QStringE4sizeEv
FNDA:0,_ZNKSt16initializer_listI7QStringE4sizeEv
FN:75,_ZNKSt16initializer_listI7QStringE5beginEv
FNDA:0,_ZNKSt16initializer_listI7QStringE5beginEv
FN:79,_ZNKSt16initializer_listI7QStringE3endEv
FNDA:0,_ZNKSt16initializer_listI7QStringE3endEv
DA:71,0
DA:75,0
DA:79,0
end_of_record
SF:C:
Users
USER
Documents
UFMG
6
teste
testes_tp
build/..
atualizar_contato.cpp
FN:6,_ZN17atualizar_contatoC2EP7QWidgeti
FNDA:2,_ZN17atualizar_contatoC2EP7QWidgeti
FN:28,_ZN17atualizar_contatoD0Ev
FNDA:0,_ZN17atualizar_contatoD0Ev
FN:28,_ZN17atualizar_contatoD2Ev
FNDA:2,_ZN17atualizar_contatoD2Ev
FN:34,_ZN17atualizar_contato19on_cancelar_clickedEv
FNDA:0,_ZN17atualizar_contato19on_cancelar_clickedEv
FN:40,_ZN17atualizar_contato20on_atualizar_clickedEv
FNDA:1,_ZN17atualizar_contato20on_atualizar_clickedEv
FN:212,_ZNK17atualizar_contato26get_atualizar_query_resultEv
FNDA:1,_ZNK17atualizar_contato26get_atualizar_query_resultEv
DA:6,2
DA:8,2
DA:10,2
DA:12,2
DA:14,4
DA:15,2
DA:16,2
DA:17,1
DA:18,1
DA:19,1
DA:20,1
DA:21,1
DA:24,1
DA:26,2
DA:28,0
DA:31,0
DA:28,2
DA:30,2
DA:31,2
DA:34,0
DA:36,0
DA:37,0
DA:40,1
DA:42,1
DA:43,1
DA:44,1
DA:45,1
DA:46,1
DA:47,2
DA:48,1
DA:49,1
DA:50,1
DA:51,1
DA:54,0
DA:56,1
DA:57,0
DA:58,0
DA:59,0
DA:60,0
DA:61,0
DA:62,0
DA:65,0
DA:67,0
DA:68,0
DA:69,0
DA:70,0
DA:71,0
DA:72,0
DA:73,0
DA:76,0
DA:78,0
DA:79,0
DA:80,0
DA:81,0
DA:82,0
DA:83,0
DA:84,0
DA:87,0
DA:89,0
DA:90,0
DA:91,0
DA:92,0
DA:93,0
DA:94,0
DA:95,0
DA:98,0
DA:100,0
DA:101,0
DA:102,0
DA:103,0
DA:104,0
DA:105,0
DA:106,0
DA:109,0
DA:111,0
DA:112,0
DA:113,0
DA:114,0
DA:115,0
DA:116,0
DA:119,0
DA:121,0
DA:122,0
DA:123,0
DA:124,0
DA:125,0
DA:126,0
DA:127,0
DA:130,0
DA:132,0
DA:133,0
DA:134,0
DA:135,0
DA:136,0
DA:137,0
DA:138,0
DA:141,0
DA:143,0
DA:144,0
DA:145,0
DA:146,0
DA:147,0
DA:148,0
DA:149,0
DA:152,0
DA:154,0
DA:155,0
DA:156,0
DA:157,0
DA:158,0
DA:159,0
DA:160,0
DA:163,0
DA:165,0
DA:166,0
DA:167,0
DA:168,0
DA:169,0
DA:170,0
DA:171,0
DA:174,0
DA:176,0
DA:177,0
DA:178,0
DA:179,0
DA:180,0
DA:181,0
DA:182,0
DA:185,0
DA:187,0
DA:188,0
DA:189,0
DA:190,0
DA:191,0
DA:192,0
DA:193,0
DA:196,0
DA:198,0
DA:199,0
DA:200,0
DA:201,0
DA:202,0
DA:203,0
DA:204,0
DA:207,0
DA:209,0
DA:210,1
DA:212,1
DA:213,1
end_of_record
SF:C:
Users
USER
Documents
UFMG
6
teste
testes_tp
build/ui_atualizar_contato.h
FN:45,_ZN20Ui_atualizar_contato7setupUiEP7QDialog
FNDA:2,_ZN20Ui_atualizar_contato7setupUiEP7QDialog
FN:186,_ZN20Ui_atualizar_contato13retranslateUiEP7QDialog
FNDA:2,_ZN20Ui_atualizar_contato13retranslateUiEP7QDialog
DA:45,2
DA:47,2
DA:48,2
DA:49,2
DA:50,2
DA:51,2
DA:52,2
DA:53,2
DA:54,2
DA:55,2
DA:56,2
DA:57,2
DA:58,2
DA:59,2
DA:60,2
DA:61,2
DA:62,4
DA:63,2
DA:64,2
DA:65,2
DA:66,2
DA:67,2
DA:73,2
DA:75,2
DA:76,2
DA:77,2
DA:79,2
DA:82,2
DA:84,2
DA:85,2
DA:86,2
DA:87,2
DA:88,2
DA:89,4
DA:90,2
DA:91,2
DA:92,2
DA:98,2
DA:100,2
DA:101,2
DA:102,2
DA:104,2
DA:107,2
DA:109,2
DA:110,2
DA:111,2
DA:112,2
DA:113,2
DA:114,2
DA:120,2
DA:122,2
DA:123,2
DA:124,2
DA:126,2
DA:129,2
DA:131,2
DA:132,2
DA:133,2
DA:134,2
DA:135,2
DA:136,2
DA:142,2
DA:144,2
DA:145,2
DA:146,2
DA:148,2
DA:151,2
DA:153,2
DA:154,2
DA:155,2
DA:156,2
DA:157,2
DA:164,2
DA:166,2
DA:167,2
DA:168,2
DA:175,2
DA:178,2
DA:181,2
DA:183,2
DA:184,2
DA:186,2
DA:188,2
DA:189,2
DA:190,2
DA:191,2
DA:192,2
DA:193,2
DA:194,2
DA:195,2
DA:196,2
DA:197,2
DA:198,2
DA:199,2
DA:200,2
DA:201,2
DA:202,2
DA:203,2
end_of_record
SF:C:
Users
USER
Documents
UFMG
6
teste
testes_tp
build/C:/Qt/Tools/mingw1120_64/lib/gcc/x86_64-w64-mingw32/11.2.0/include/c++/bits/atomic_base.h
FN:104,_ZStanSt12memory_orderSt23__memory_order_modifier
FNDA:0,_ZStanSt12memory_orderSt23__memory_order_modifier
DA:104,0
DA:106,0
DA:477,0
DA:481,0
DA:636,0
DA:646,0
end_of_record
SF:C:
Users
USER
Documents
UFMG
6
teste
testes_tp
build/C:/Qt/6.6.0/mingw_64/include/QtCore/qstring.h
FN:178,_ZN7QStringC1EOS_
FNDA:0,_ZN7QStringC1EOS_
FN:182,_ZNK7QString4sizeEv
FNDA:0,_ZNK7QString4sizeEv
FN:188,_ZNK7QString7isEmptyEv
FNDA:0,_ZNK7QString7isEmptyEv
FN:463,_ZN7QStringpLERKS_
FNDA:0,_ZN7QStringpLERKS_
FN:782,_ZN7QStringC1EPKc
FNDA:0,_ZN7QStringC1EPKc
FN:806,_ZN7QStringpLEPKc
FNDA:0,_ZN7QStringpLEPKc
FN:1085,_ZNK7QString4dataEv
FNDA:0,_ZNK7QString4dataEv
FN:1099,_ZNK7QString9constDataEv
FNDA:0,_ZNK7QString9constDataEv
FN:1107,_ZN7QStringC1ERKS_
FNDA:0,_ZN7QStringC1ERKS_
FN:1168,_ZN7QStringC1Ev
FNDA:0,_ZN7QStringC1Ev
FN:1169,_ZN7QStringD1Ev
FNDA:0,_ZN7QStringD1Ev
FN:1221,_ZNK7QStringeqEPKc
FNDA:0,_ZNK7QStringeqEPKc
FN:1223,_ZNK7QStringneEPKc
FNDA:0,_ZNK7QStringneEPKc
FN:1293,_ZplO7QStringRKS_
FNDA:0,_ZplO7QStringRKS_
FN:1304,_ZplO7QStringPKc
FNDA:0,_ZplO7QStringPKc
FN:1306,_ZplPKcRK7QString
FNDA:0,_ZplPKcRK7QString
DA:178,0
DA:182,0
DA:188,0
DA:463,0
DA:782,0
DA:783,0
DA:784,0
DA:806,0
DA:807,0
DA:1085,0
DA:1088,0
DA:1099,0
DA:1100,0
DA:1107,0
DA:1108,0
DA:1168,0
DA:1169,0
DA:1221,0
DA:1222,0
DA:1223,0
DA:1224,0
DA:1293,0
DA:1294,0
DA:1304,0
DA:1305,0
DA:1306,0
DA:1307,0
end_of_record
SF:C:
Users
USER
Documents
UFMG
6
teste
testes_tp
build/C:/Qt/6.6.0/mingw_64/include/QtCore/qbytearrayview.h
FN:67,_ZN9QtPrivateL19lengthHelperPointerIcEExPKT_
FNDA:0,_ZN9QtPrivateL19lengthHelperPointerIcEExPKT_
FN:116,_ZN14QByteArrayView21lengthHelperCharArrayEPKcy
FNDA:0,_ZN14QByteArrayView21lengthHelperCharArrayEPKcy
FN:126,_ZN14QByteArrayView10castHelperEPKc
FNDA:0,_ZN14QByteArrayView10castHelperEPKc
FN:136,_ZN14QByteArrayViewC1IcLb1EEEPKT_x
FNDA:0,_ZN14QByteArrayViewC1IcLb1EEEPKT_x
FN:149,_ZN14QByteArrayViewC1IPKcLb1EEERKT_
FNDA:0,_ZN14QByteArrayViewC1IPKcLb1EEERKT_
FN:166,_ZN14QByteArrayViewC1ILy135EEERAT__Kc
FNDA:0,_ZN14QByteArrayViewC1ILy135EEERAT__Kc
FN:166,_ZN14QByteArrayViewC1ILy106EEERAT__Kc
FNDA:0,_ZN14QByteArrayViewC1ILy106EEERAT__Kc
FN:166,_ZN14QByteArrayViewC1ILy23EEERAT__Kc
FNDA:0,_ZN14QByteArrayViewC1ILy23EEERAT__Kc
FN:166,_ZN14QByteArrayViewC1ILy107EEERAT__Kc
FNDA:0,_ZN14QByteArrayViewC1ILy107EEERAT__Kc
FN:166,_ZN14QByteArrayViewC1ILy12EEERAT__Kc
FNDA:0,_ZN14QByteArrayViewC1ILy12EEERAT__Kc
FN:166,_ZN14QByteArrayViewC1ILy221EEERAT__Kc
FNDA:0,_ZN14QByteArrayViewC1ILy221EEERAT__Kc
DA:67,0
DA:69,0
DA:116,0
DA:118,0
DA:119,0
DA:120,0
DA:126,0
DA:127,0
DA:136,0
DA:137,0
DA:138,0
DA:149,0
DA:151,0
DA:166,0
DA:167,0
DA:166,0
DA:167,0
DA:166,0
DA:167,0
DA:166,0
DA:167,0
DA:166,0
DA:167,0
DA:166,0
DA:167,0
end_of_record
SF:C:
Users
USER
Documents
UFMG
6
teste
testes_tp
build/C:/Qt/6.6.0/mingw_64/include/QtCore/qflags.h
FN:73,_ZN6QFlagsIN2Qt13AlignmentFlagEEC1Ev
FNDA:0,_ZN6QFlagsIN2Qt13AlignmentFlagEEC1Ev
FN:73,_ZN6QFlagsIN2Qt10WindowTypeEEC1Ev
FNDA:0,_ZN6QFlagsIN2Qt10WindowTypeEEC1Ev
FN:74,_ZN6QFlagsIN11QMessageBox14StandardButtonEEC1ES1_
FNDA:2,_ZN6QFlagsIN11QMessageBox14StandardButtonEEC1ES1_
DA:73,0
DA:73,0
DA:74,2
end_of_record
SF:C:
Users
USER
Documents
UFMG
6
teste
testes_tp
build/C:/Qt/Tools/mingw1120_64/lib/gcc/x86_64-w64-mingw32/11.2.0/include/c++/bits/stl_iterator_base_funcs.h
FN:98,_ZSt10__distanceIPKcENSt15iterator_traitsIT_E15difference_typeES3_S3_St26random_access_iterator_tag
FNDA:0,_ZSt10__distanceIPKcENSt15iterator_traitsIT_E15difference_typeES3_S3_St26random_access_iterator_tag
FN:138,_ZSt8distanceIPKcENSt15iterator_traitsIT_E15difference_typeES3_S3_
FNDA:0,_ZSt8distanceIPKcENSt15iterator_traitsIT_E15difference_typeES3_S3_
FN:174,_ZSt9__advanceIPKcxEvRT_T0_St26random_access_iterator_tag
FNDA:0,_ZSt9__advanceIPKcxEvRT_T0_St26random_access_iterator_tag
FN:202,_ZSt7advanceIPKcxEvRT_T0_
FNDA:0,_ZSt7advanceIPKcxEvRT_T0_
FN:213,_ZSt4nextIPKcET_S2_NSt15iterator_traitsIS2_E15difference_typeE
FNDA:0,_ZSt4nextIPKcET_S2_NSt15iterator_traitsIS2_E15difference_typeE
DA:98,0
DA:104,0
DA:138,0
DA:141,0
DA:142,0
DA:174,0
DA:185,0
DA:186,0
DA:202,0
DA:205,0
DA:206,0
DA:207,0
DA:213,0
DA:218,0
DA:219,0
end_of_record
SF:C:
Users
USER
Documents
UFMG
6
teste
testes_tp
build/C:/Qt/6.6.0/mingw_64/include/QtCore/qatomic_cxx11.h
FN:199,_ZN10QAtomicOpsIiE11loadRelaxedIiEET_RKSt6atomicIS2_E
FNDA:0,_ZN10QAtomicOpsIiE11loadRelaxedIiEET_RKSt6atomicIS2_E
FN:243,_ZN10QAtomicOpsIiE3refIiEEbRSt6atomicIT_E
FNDA:0,_ZN10QAtomicOpsIiE3refIiEEbRSt6atomicIT_E
FN:262,_ZN10QAtomicOpsIiE5derefIiEEbRSt6atomicIT_E
FNDA:0,_ZN10QAtomicOpsIiE5derefIiEEbRSt6atomicIT_E
DA:199,0
DA:201,0
DA:243,0
DA:258,0
DA:262,0
DA:265,0
end_of_record
SF:C:
Users
USER
Documents
UFMG
6
teste
testes_tp
build/C:/Qt/6.6.0/mingw_64/include/QtCore/qarraydata.h
FN:43,_ZNK10QArrayData22constAllocatedCapacityEv
FNDA:0,_ZNK10QArrayData22constAllocatedCapacityEv
FN:49,_ZN10QArrayData3refEv
FNDA:0,_ZN10QArrayData3refEv
FN:56,_ZN10QArrayData5derefEv
FNDA:0,_ZN10QArrayData5derefEv
FN:61,_ZNK10QArrayData8isSharedEv
FNDA:0,_ZNK10QArrayData8isSharedEv
FN:101,_ZN15QTypedArrayDataI7QStringE8allocateExN10QArrayData16AllocationOptionE
FNDA:0,_ZN15QTypedArrayDataI7QStringE8allocateExN10QArrayData16AllocationOptionE
FN:127,_ZN15QTypedArrayDataI7QStringE9dataStartEP10QArrayDatax
FNDA:0,_ZN15QTypedArrayDataI7QStringE9dataStartEP10QArrayDatax
DA:43,0
DA:45,0
DA:49,0
DA:51,0
DA:52,0
DA:56,0
DA:58,0
DA:61,0
DA:63,0
DA:101,0
DA:105,0
DA:107,0
DA:109,0
DA:127,0
DA:130,0
DA:131,0
DA:132,0
DA:133,0
end_of_record
SF:C:
Users
USER
Documents
UFMG
6
teste
testes_tp
build/C:/Qt/6.6.0/mingw_64/include/QtCore/qrect.h
FN:154,_ZN5QRectC1Eiiii
FNDA:0,_ZN5QRectC1Eiiii
DA:154,0
DA:155,0
end_of_record
SF:C:
Users
USER
Documents
UFMG
6
teste
testes_tp
build/C:/Qt/6.6.0/mingw_64/include/QtCore/qanystringview.h
FN:101,_ZN14QAnyStringView29isAsciiOnlyCharsAtCompileTimeIKcEEbPT_x
FNDA:0,_ZN14QAnyStringView29isAsciiOnlyCharsAtCompileTimeIKcEEbPT_x
FN:131,_ZN14QAnyStringView10encodeTypeIcEEyPKT_x
FNDA:0,_ZN14QAnyStringView10encodeTypeIcEEyPKT_x
FN:166,_ZN14QAnyStringView21lengthHelperContainerIcLy6EEExRAT0__KT_
FNDA:0,_ZN14QAnyStringView21lengthHelperContainerIcLy6EEExRAT0__KT_
FN:166,_ZN14QAnyStringView21lengthHelperContainerIcLy9EEExRAT0__KT_
FNDA:0,_ZN14QAnyStringView21lengthHelperContainerIcLy9EEExRAT0__KT_
FN:166,_ZN14QAnyStringView21lengthHelperContainerIcLy5EEExRAT0__KT_
FNDA:0,_ZN14QAnyStringView21lengthHelperContainerIcLy5EEExRAT0__KT_
FN:166,_ZN14QAnyStringView21lengthHelperContainerIcLy10EEExRAT0__KT_
FNDA:0,_ZN14QAnyStringView21lengthHelperContainerIcLy10EEExRAT0__KT_
FN:166,_ZN14QAnyStringView21lengthHelperContainerIcLy8EEExRAT0__KT_
FNDA:0,_ZN14QAnyStringView21lengthHelperContainerIcLy8EEExRAT0__KT_
FN:166,_ZN14QAnyStringView21lengthHelperContainerIcLy18EEExRAT0__KT_
FNDA:0,_ZN14QAnyStringView21lengthHelperContainerIcLy18EEExRAT0__KT_
FN:166,_ZN14QAnyStringView21lengthHelperContainerIcLy19EEExRAT0__KT_
FNDA:0,_ZN14QAnyStringView21lengthHelperContainerIcLy19EEExRAT0__KT_
FN:166,_ZN14QAnyStringView21lengthHelperContainerIcLy15EEExRAT0__KT_
FNDA:0,_ZN14QAnyStringView21lengthHelperContainerIcLy15EEExRAT0__KT_
FN:166,_ZN14QAnyStringView21lengthHelperContainerIcLy17EEExRAT0__KT_
FNDA:0,_ZN14QAnyStringView21lengthHelperContainerIcLy17EEExRAT0__KT_
FN:186,_ZN14QAnyStringViewC1IcLb1EEEPKT_x
FNDA:0,_ZN14QAnyStringViewC1IcLb1EEEPKT_x
FN:214,_ZN14QAnyStringViewC1IA15_cLb1EEERKT_
FNDA:0,_ZN14QAnyStringViewC1IA15_cLb1EEERKT_
FN:214,_ZN14QAnyStringViewC1IA17_cLb1EEERKT_
FNDA:0,_ZN14QAnyStringViewC1IA17_cLb1EEERKT_
FN:214,_ZN14QAnyStringViewC1IA18_cLb1EEERKT_
FNDA:0,_ZN14QAnyStringViewC1IA18_cLb1EEERKT_
FN:214,_ZN14QAnyStringViewC1IA19_cLb1EEERKT_
FNDA:0,_ZN14QAnyStringViewC1IA19_cLb1EEERKT_
FN:214,_ZN14QAnyStringViewC1IA10_cLb1EEERKT_
FNDA:0,_ZN14QAnyStringViewC1IA10_cLb1EEERKT_
FN:214,_ZN14QAnyStringViewC1IA8_cLb1EEERKT_
FNDA:0,_ZN14QAnyStringViewC1IA8_cLb1EEERKT_
FN:214,_ZN14QAnyStringViewC1IA9_cLb1EEERKT_
FNDA:0,_ZN14QAnyStringViewC1IA9_cLb1EEERKT_
FN:214,_ZN14QAnyStringViewC1IA5_cLb1EEERKT_
FNDA:0,_ZN14QAnyStringViewC1IA5_cLb1EEERKT_
FN:214,_ZN14QAnyStringViewC1IA6_cLb1EEERKT_
FNDA:0,_ZN14QAnyStringViewC1IA6_cLb1EEERKT_
DA:101,0
DA:114,0
DA:131,0
DA:134,0
DA:135,0
DA:136,0
DA:137,0
DA:139,0
DA:166,0
DA:168,0
DA:169,0
DA:170,0
DA:166,0
DA:168,0
DA:169,0
DA:170,0
DA:166,0
DA:168,0
DA:169,0
DA:170,0
DA:166,0
DA:168,0
DA:169,0
DA:170,0
DA:166,0
DA:168,0
DA:169,0
DA:170,0
DA:166,0
DA:168,0
DA:169,0
DA:170,0
DA:166,0
DA:168,0
DA:169,0
DA:170,0
DA:166,0
DA:168,0
DA:169,0
DA:170,0
DA:166,0
DA:168,0
DA:169,0
DA:170,0
DA:186,0
DA:187,0
DA:189,0
DA:214,0
DA:215,0
DA:214,0
DA:215,0
DA:214,0
DA:215,0
DA:214,0
DA:215,0
DA:214,0
DA:215,0
DA:214,0
DA:215,0
DA:214,0
DA:215,0
DA:214,0
DA:215,0
DA:214,0
DA:215,0
end_of_record
SF:C:
Users
USER
Documents
UFMG
6
teste
testes_tp
build/C:/Qt/Tools/mingw1120_64/lib/gcc/x86_64-w64-mingw32/11.2.0/include/c++/bits/range_access.h
FN:310,_ZSt4dataIKcLy6EEPT_RAT0__S1_
FNDA:0,_ZSt4dataIKcLy6EEPT_RAT0__S1_
FN:310,_ZSt4dataIKcLy5EEPT_RAT0__S1_
FNDA:0,_ZSt4dataIKcLy5EEPT_RAT0__S1_
FN:310,_ZSt4dataIKcLy8EEPT_RAT0__S1_
FNDA:0,_ZSt4dataIKcLy8EEPT_RAT0__S1_
FN:310,_ZSt4dataIKcLy19EEPT_RAT0__S1_
FNDA:0,_ZSt4dataIKcLy19EEPT_RAT0__S1_
FN:310,_ZSt4dataIKcLy17EEPT_RAT0__S1_
FNDA:0,_ZSt4dataIKcLy17EEPT_RAT0__S1_
FN:310,_ZSt4dataIKcLy15EEPT_RAT0__S1_
FNDA:0,_ZSt4dataIKcLy15EEPT_RAT0__S1_
FN:310,_ZSt4dataIKcLy18EEPT_RAT0__S1_
FNDA:0,_ZSt4dataIKcLy18EEPT_RAT0__S1_
FN:310,_ZSt4dataIKcLy10EEPT_RAT0__S1_
FNDA:0,_ZSt4dataIKcLy10EEPT_RAT0__S1_
FN:310,_ZSt4dataIKcLy9EEPT_RAT0__S1_
FNDA:0,_ZSt4dataIKcLy9EEPT_RAT0__S1_
DA:310,0
DA:311,0
DA:310,0
DA:311,0
DA:310,0
DA:311,0
DA:310,0
DA:311,0
DA:310,0
DA:311,0
DA:310,0
DA:311,0
DA:310,0
DA:311,0
DA:310,0
DA:311,0
DA:310,0
DA:311,0
end_of_record
SF:C:
Users
USER
Documents
UFMG
6
teste
testes_tp
build/C:/Qt/6.6.0/mingw_64/include/QtWidgets/qwidget.h
FN:883,_ZN7QWidget6resizeEii
FNDA:0,_ZN7QWidget6resizeEii
DA:883,0
DA:884,0
end_of_record
SF:C:
Users
USER
Documents
UFMG
6
teste
testes_tp
build/C:/Qt/6.6.0/mingw_64/include/QtCore/qutf8stringview.h
FN:148,_ZN20QBasicUtf8StringViewILb0EE10castHelperEPKc
FNDA:0,_ZN20QBasicUtf8StringViewILb0EE10castHelperEPKc
FN:158,_ZN20QBasicUtf8StringViewILb0EEC1IcLb1EEEPKT_x
FNDA:0,_ZN20QBasicUtf8StringViewILb0EEC1IcLb1EEEPKT_x
FN:174,_ZN20QBasicUtf8StringViewILb0EEC1IPKcLb1EEERKT_
FNDA:0,_ZN20QBasicUtf8StringViewILb0EEC1IPKcLb1EEERKT_
DA:148,0
DA:149,0
DA:158,0
DA:159,0
DA:160,0
DA:174,0
DA:176,0
end_of_record
SF:C:
Users
USER
Documents
UFMG
6
teste
testes_tp
build/..
atualizar_contato.h
end_of_record
SF:C:
Users
USER
Documents
UFMG
6
teste
testes_tp
build/C:/Qt/Tools/mingw1120_64/lib/gcc/x86_64-w64-mingw32/11.2.0/include/c++/bits/stl_pair.h
FN:352,_ZNSt4pairIP15QTypedArrayDataI7QStringEPS1_EC1IS3_S4_Lb1EEEOT_OT0_
FNDA:0,_ZNSt4pairIP15QTypedArrayDataI7QStringEPS1_EC1IS3_S4_Lb1EEEOT_OT0_
FN:567,_ZSt9make_pairIP15QTypedArrayDataI7QStringEPS1_ESt4pairINSt25__strip_reference_wrapperINSt5decayIT_E4typeEE6__typeENS6_INS7_IT0_E4typeEE6__typeEEOS8_OSD_
FNDA:0,_ZSt9make_pairIP15QTypedArrayDataI7QStringEPS1_ESt4pairINSt25__strip_reference_wrapperINSt5decayIT_E4typeEE6__typeENS6_INS7_IT0_E4typeEE6__typeEEOS8_OSD_
DA:352,0
DA:353,0
DA:567,0
DA:572,0
end_of_record
SF:C:
Users
USER
Documents
UFMG
6
teste
testes_tp
build/C:/Qt/6.6.0/mingw_64/include/QtCore/qarraydataops.h
FN:95,_ZN9QtPrivate12QPodArrayOpsIDsE10destroyAllEv
FNDA:0,_ZN9QtPrivate12QPodArrayOpsIDsE10destroyAllEv
FN:329,_ZN9QtPrivate16QGenericArrayOpsI7QStringE10copyAppendEPKS1_S4_
FNDA:0,_ZN9QtPrivate16QGenericArrayOpsI7QStringE10copyAppendEPKS1_S4_
FN:389,_ZN9QtPrivate16QGenericArrayOpsI7QStringE10destroyAllEv
FNDA:0,_ZN9QtPrivate16QGenericArrayOpsI7QStringE10destroyAllEv
DA:95,0
DA:97,0
DA:98,0
DA:102,0
DA:329,0
DA:331,0
DA:332,0
DA:333,0
DA:334,0
DA:336,0
DA:337,0
DA:339,0
DA:340,0
DA:341,0
DA:342,0
DA:343,0
DA:389,0
DA:391,0
DA:395,0
DA:397,0
DA:398,0
end_of_record
SF:C:
Users
USER
Documents
UFMG
6
teste
testes_tp
build/C:/Qt/6.6.0/mingw_64/include/QtCore/qbasicatomic.h
FN:38,_ZNK19QBasicAtomicIntegerIiE11loadRelaxedEv
FNDA:0,_ZNK19QBasicAtomicIntegerIiE11loadRelaxedEv
FN:49,_ZN19QBasicAtomicIntegerIiE3refEv
FNDA:0,_ZN19QBasicAtomicIntegerIiE3refEv
FN:50,_ZN19QBasicAtomicIntegerIiE5derefEv
FNDA:0,_ZN19QBasicAtomicIntegerIiE5derefEv
DA:38,0
DA:49,0
DA:50,0
end_of_record
SF:C:
Users
USER
Documents
UFMG
6
teste
testes_tp
build/C:/Qt/Tools/mingw1120_64/lib/gcc/x86_64-w64-mingw32/11.2.0/include/c++/bits/stl_iterator_base_types.h
FN:238,_ZSt19__iterator_categoryIPKcENSt15iterator_traitsIT_E17iterator_categoryERKS3_
FNDA:0,_ZSt19__iterator_categoryIPKcENSt15iterator_traitsIT_E17iterator_categoryERKS3_
DA:238,0
DA:239,0
end_of_record
TN:
SF:C:
Users
USER
Documents
UFMG
6
teste
testes_tp
build/C:/Qt/6.6.0/mingw_64/include/QtCore/qatomic_cxx11.h
FN:199,_ZN10QAtomicOpsIiE11loadRelaxedIiEET_RKSt6atomicIS2_E
FNDA:0,_ZN10QAtomicOpsIiE11loadRelaxedIiEET_RKSt6atomicIS2_E
FN:262,_ZN10QAtomicOpsIiE5derefIiEEbRSt6atomicIT_E
FNDA:0,_ZN10QAtomicOpsIiE5derefIiEEbRSt6atomicIT_E
DA:199,0
DA:201,0
DA:262,0
DA:265,0
end_of_record
SF:C:
Users
USER
Documents
UFMG
6
teste
testes_tp
build/C:/Qt/6.6.0/mingw_64/include/QtCore/qarraydata.h
FN:56,_ZN10QArrayData5derefEv
FNDA:0,_ZN10QArrayData5derefEv
DA:56,0
DA:58,0
end_of_record
SF:C:
Users
USER
Documents
UFMG
6
teste
testes_tp
build/C:/Qt/6.6.0/mingw_64/include/QtCore/qrect.h
FN:154,_ZN5QRectC1Eiiii
FNDA:0,_ZN5QRectC1Eiiii
DA:154,0
DA:155,0
end_of_record
SF:C:
Users
USER
Documents
UFMG
6
teste
testes_tp
build/ui_cadastrar.h
FN:42,_ZN12Ui_cadastrar7setupUiEP7QDialog
FNDA:1,_ZN12Ui_cadastrar7setupUiEP7QDialog
FN:154,_ZN12Ui_cadastrar13retranslateUiEP7QDialog
FNDA:1,_ZN12Ui_cadastrar13retranslateUiEP7QDialog
DA:42,1
DA:44,1
DA:45,1
DA:46,1
DA:47,1
DA:50,1
DA:51,1
DA:52,1
DA:53,1
DA:54,1
DA:55,1
DA:56,1
DA:57,1
DA:58,1
DA:59,1
DA:60,1
DA:61,1
DA:66,1
DA:68,1
DA:69,1
DA:70,1
DA:74,1
DA:77,1
DA:79,1
DA:80,1
DA:81,1
DA:82,1
DA:83,1
DA:88,1
DA:90,1
DA:91,1
DA:92,1
DA:95,1
DA:97,1
DA:100,1
DA:102,1
DA:103,1
DA:104,1
DA:105,1
DA:106,1
DA:111,1
DA:113,1
DA:114,1
DA:115,1
DA:118,1
DA:120,1
DA:123,1
DA:125,1
DA:126,1
DA:127,1
DA:128,1
DA:129,1
DA:134,1
DA:136,1
DA:137,1
DA:138,1
DA:143,1
DA:146,1
DA:149,1
DA:151,1
DA:152,1
DA:154,1
DA:156,1
DA:157,1
DA:158,1
DA:159,1
DA:160,1
DA:161,1
DA:162,1
DA:163,1
DA:164,1
DA:165,1
end_of_record
SF:C:
Users
USER
Documents
UFMG
6
teste
testes_tp
build/C:/Qt/6.6.0/mingw_64/include/QtCore/qarraydataops.h
FN:95,_ZN9QtPrivate12QPodArrayOpsIDsE10destroyAllEv
FNDA:0,_ZN9QtPrivate12QPodArrayOpsIDsE10destroyAllEv
DA:95,0
DA:97,0
DA:98,0
DA:102,0
end_of_record
SF:C:
Users
USER
Documents
UFMG
6
teste
testes_tp
build/C:/Qt/Tools/mingw1120_64/lib/gcc/x86_64-w64-mingw32/11.2.0/include/c++/bits/range_access.h
FN:310,_ZSt4dataIKcLy9EEPT_RAT0__S1_
FNDA:0,_ZSt4dataIKcLy9EEPT_RAT0__S1_
FN:310,_ZSt4dataIKcLy14EEPT_RAT0__S1_
FNDA:15,_ZSt4dataIKcLy14EEPT_RAT0__S1_
FN:310,_ZSt4dataIKcLy19EEPT_RAT0__S1_
FNDA:0,_ZSt4dataIKcLy19EEPT_RAT0__S1_
FN:310,_ZSt4dataIKcLy8EEPT_RAT0__S1_
FNDA:0,_ZSt4dataIKcLy8EEPT_RAT0__S1_
FN:310,_ZSt4dataIKcLy6EEPT_RAT0__S1_
FNDA:0,_ZSt4dataIKcLy6EEPT_RAT0__S1_
FN:310,_ZSt4dataIKcLy17EEPT_RAT0__S1_
FNDA:0,_ZSt4dataIKcLy17EEPT_RAT0__S1_
FN:310,_ZSt4dataIKcLy15EEPT_RAT0__S1_
FNDA:0,_ZSt4dataIKcLy15EEPT_RAT0__S1_
FN:310,_ZSt4dataIKcLy13EEPT_RAT0__S1_
FNDA:0,_ZSt4dataIKcLy13EEPT_RAT0__S1_
FN:310,_ZSt4dataIKcLy10EEPT_RAT0__S1_
FNDA:0,_ZSt4dataIKcLy10EEPT_RAT0__S1_
DA:310,0
DA:311,0
DA:310,15
DA:311,15
DA:310,0
DA:311,0
DA:310,0
DA:311,0
DA:310,0
DA:311,0
DA:310,0
DA:311,0
DA:310,0
DA:311,0
DA:310,0
DA:311,0
DA:310,0
DA:311,0
end_of_record
SF:C:
Users
USER
Documents
UFMG
6
teste
testes_tp
build/C:/Qt/6.6.0/mingw_64/include/QtWidgets/qwidget.h
FN:883,_ZN7QWidget6resizeEii
FNDA:0,_ZN7QWidget6resizeEii
DA:883,0
DA:884,0
end_of_record
SF:C:
Users
USER
Documents
UFMG
6
teste
testes_tp
build/C:/Qt/6.6.0/mingw_64/include/QtCore/qanystringview.h
FN:101,_ZN14QAnyStringView29isAsciiOnlyCharsAtCompileTimeIKcEEbPT_x
FNDA:0,_ZN14QAnyStringView29isAsciiOnlyCharsAtCompileTimeIKcEEbPT_x
FN:131,_ZN14QAnyStringView10encodeTypeIcEEyPKT_x
FNDA:0,_ZN14QAnyStringView10encodeTypeIcEEyPKT_x
FN:166,_ZN14QAnyStringView21lengthHelperContainerIcLy9EEExRAT0__KT_
FNDA:0,_ZN14QAnyStringView21lengthHelperContainerIcLy9EEExRAT0__KT_
FN:166,_ZN14QAnyStringView21lengthHelperContainerIcLy10EEExRAT0__KT_
FNDA:0,_ZN14QAnyStringView21lengthHelperContainerIcLy10EEExRAT0__KT_
FN:166,_ZN14QAnyStringView21lengthHelperContainerIcLy14EEExRAT0__KT_
FNDA:15,_ZN14QAnyStringView21lengthHelperContainerIcLy14EEExRAT0__KT_
FN:166,_ZN14QAnyStringView21lengthHelperContainerIcLy13EEExRAT0__KT_
FNDA:0,_ZN14QAnyStringView21lengthHelperContainerIcLy13EEExRAT0__KT_
FN:166,_ZN14QAnyStringView21lengthHelperContainerIcLy19EEExRAT0__KT_
FNDA:0,_ZN14QAnyStringView21lengthHelperContainerIcLy19EEExRAT0__KT_
FN:166,_ZN14QAnyStringView21lengthHelperContainerIcLy15EEExRAT0__KT_
FNDA:0,_ZN14QAnyStringView21lengthHelperContainerIcLy15EEExRAT0__KT_
FN:166,_ZN14QAnyStringView21lengthHelperContainerIcLy8EEExRAT0__KT_
FNDA:0,_ZN14QAnyStringView21lengthHelperContainerIcLy8EEExRAT0__KT_
FN:166,_ZN14QAnyStringView21lengthHelperContainerIcLy17EEExRAT0__KT_
FNDA:0,_ZN14QAnyStringView21lengthHelperContainerIcLy17EEExRAT0__KT_
FN:166,_ZN14QAnyStringView21lengthHelperContainerIcLy6EEExRAT0__KT_
FNDA:0,_ZN14QAnyStringView21lengthHelperContainerIcLy6EEExRAT0__KT_
FN:186,_ZN14QAnyStringViewC1IcLb1EEEPKT_x
FNDA:0,_ZN14QAnyStringViewC1IcLb1EEEPKT_x
FN:214,_ZN14QAnyStringViewC1IA17_cLb1EEERKT_
FNDA:0,_ZN14QAnyStringViewC1IA17_cLb1EEERKT_
FN:214,_ZN14QAnyStringViewC1IA6_cLb1EEERKT_
FNDA:0,_ZN14QAnyStringViewC1IA6_cLb1EEERKT_
FN:214,_ZN14QAnyStringViewC1IA15_cLb1EEERKT_
FNDA:0,_ZN14QAnyStringViewC1IA15_cLb1EEERKT_
FN:214,_ZN14QAnyStringViewC1IA8_cLb1EEERKT_
FNDA:0,_ZN14QAnyStringViewC1IA8_cLb1EEERKT_
FN:214,_ZN14QAnyStringViewC1IA13_cLb1EEERKT_
FNDA:0,_ZN14QAnyStringViewC1IA13_cLb1EEERKT_
FN:214,_ZN14QAnyStringViewC1IA19_cLb1EEERKT_
FNDA:0,_ZN14QAnyStringViewC1IA19_cLb1EEERKT_
FN:214,_ZN14QAnyStringViewC1IA10_cLb1EEERKT_
FNDA:0,_ZN14QAnyStringViewC1IA10_cLb1EEERKT_
FN:214,_ZN14QAnyStringViewC1IA14_cLb1EEERKT_
FNDA:15,_ZN14QAnyStringViewC1IA14_cLb1EEERKT_
FN:214,_ZN14QAnyStringViewC1IA9_cLb1EEERKT_
FNDA:0,_ZN14QAnyStringViewC1IA9_cLb1EEERKT_
DA:101,0
DA:114,0
DA:131,0
DA:134,0
DA:135,0
DA:136,0
DA:137,0
DA:139,0
DA:166,0
DA:168,0
DA:169,0
DA:170,0
DA:166,15
DA:168,15
DA:169,15
DA:170,15
DA:166,0
DA:168,0
DA:169,0
DA:170,0
DA:166,0
DA:168,0
DA:169,0
DA:170,0
DA:166,0
DA:168,0
DA:169,0
DA:170,0
DA:166,0
DA:168,0
DA:169,0
DA:170,0
DA:166,0
DA:168,0
DA:169,0
DA:170,0
DA:166,0
DA:168,0
DA:169,0
DA:170,0
DA:166,0
DA:168,0
DA:169,0
DA:170,0
DA:186,0
DA:187,0
DA:189,0
DA:214,0
DA:215,0
DA:214,15
DA:215,15
DA:214,0
DA:215,0
DA:214,0
DA:215,0
DA:214,0
DA:215,0
DA:214,0
DA:215,0
DA:214,0
DA:215,0
DA:214,0
DA:215,0
DA:214,0
DA:215,0
end_of_record
SF:C:
Users
USER
Documents
UFMG
6
teste
testes_tp
build/C:/Qt/6.6.0/mingw_64/include/QtCore/qbasicatomic.h
FN:38,_ZNK19QBasicAtomicIntegerIiE11loadRelaxedEv
FNDA:0,_ZNK19QBasicAtomicIntegerIiE11loadRelaxedEv
FN:50,_ZN19QBasicAtomicIntegerIiE5derefEv
FNDA:0,_ZN19QBasicAtomicIntegerIiE5derefEv
DA:38,0
DA:50,0
end_of_record
SF:C:
Users
USER
Documents
UFMG
6
teste
testes_tp
build/C:/Qt/Tools/mingw1120_64/lib/gcc/x86_64-w64-mingw32/11.2.0/include/c++/bits/stl_iterator_base_types.h
FN:238,_ZSt19__iterator_categoryIPKcENSt15iterator_traitsIT_E17iterator_categoryERKS3_
FNDA:0,_ZSt19__iterator_categoryIPKcENSt15iterator_traitsIT_E17iterator_categoryERKS3_
DA:238,0
DA:239,0
end_of_record
SF:C:
Users
USER
Documents
UFMG
6
teste
testes_tp
build/..
cadastrar.h
end_of_record
SF:C:
Users
USER
Documents
UFMG
6
teste
testes_tp
build/C:/Qt/6.6.0/mingw_64/include/QtCore/qsize.h
FN:118,_ZN5QSizeC1Eii
FNDA:0,_ZN5QSizeC1Eii
DA:118,0
end_of_record
SF:C:
Users
USER
Documents
UFMG
6
teste
testes_tp
build/C:/Qt/6.6.0/mingw_64/include/QtCore/qarraydatapointer.h
FN:31,_ZN17QArrayDataPointerIDsEC1Ev
FNDA:0,_ZN17QArrayDataPointerIDsEC1Ev
FN:85,_ZN17QArrayDataPointerIDsEptEv
FNDA:0,_ZN17QArrayDataPointerIDsEptEv
FN:100,_ZN17QArrayDataPointerIDsED1Ev
FNDA:0,_ZN17QArrayDataPointerIDsED1Ev
FN:413,_ZN17QArrayDataPointerIDsE5derefEv
FNDA:0,_ZN17QArrayDataPointerIDsE5derefEv
DA:31,0
DA:32,0
DA:34,0
DA:85,0
DA:87,0
DA:100,0
DA:102,0
DA:103,0
DA:104,0
DA:106,0
DA:413,0
end_of_record
SF:C:
Users
USER
Documents
UFMG
6
teste
testes_tp
build/C:/Qt/Tools/mingw1120_64/lib/gcc/x86_64-w64-mingw32/11.2.0/include/c++/bits/char_traits.h
FN:106,_ZN9__gnu_cxx11char_traitsIcE2eqERKcS3_
FNDA:0,_ZN9__gnu_cxx11char_traitsIcE2eqERKcS3_
FN:167,_ZN9__gnu_cxx11char_traitsIcE6lengthEPKc
FNDA:0,_ZN9__gnu_cxx11char_traitsIcE6lengthEPKc
FN:178,_ZN9__gnu_cxx11char_traitsIcE4findEPKcyRS2_
FNDA:0,_ZN9__gnu_cxx11char_traitsIcE4findEPKcyRS2_
FN:365,_ZNSt11char_traitsIcE6lengthEPKc
FNDA:0,_ZNSt11char_traitsIcE6lengthEPKc
FN:375,_ZNSt11char_traitsIcE4findEPKcyRS1_
FNDA:0,_ZNSt11char_traitsIcE4findEPKcyRS1_
DA:106,0
DA:107,0
DA:167,0
DA:170,0
DA:171,0
DA:172,0
DA:173,0
DA:178,0
DA:181,0
DA:182,0
DA:183,0
DA:184,0
DA:262,0
DA:365,0
DA:368,0
DA:369,0
DA:371,0
DA:375,0
DA:377,0
DA:378,0
DA:380,0
DA:382,0
DA:383,0
DA:385,0
end_of_record
SF:C:
Users
USER
Documents
UFMG
6
teste
testes_tp
build/C:/Qt/Tools/mingw1120_64/lib/gcc/x86_64-w64-mingw32/11.2.0/include/c++/bits/stl_iterator_base_funcs.h
FN:98,_ZSt10__distanceIPKcENSt15iterator_traitsIT_E15difference_typeES3_S3_St26random_access_iterator_tag
FNDA:0,_ZSt10__distanceIPKcENSt15iterator_traitsIT_E15difference_typeES3_S3_St26random_access_iterator_tag
FN:138,_ZSt8distanceIPKcENSt15iterator_traitsIT_E15difference_typeES3_S3_
FNDA:0,_ZSt8distanceIPKcENSt15iterator_traitsIT_E15difference_typeES3_S3_
FN:174,_ZSt9__advanceIPKcxEvRT_T0_St26random_access_iterator_tag
FNDA:0,_ZSt9__advanceIPKcxEvRT_T0_St26random_access_iterator_tag
FN:202,_ZSt7advanceIPKcxEvRT_T0_
FNDA:0,_ZSt7advanceIPKcxEvRT_T0_
FN:213,_ZSt4nextIPKcET_S2_NSt15iterator_traitsIS2_E15difference_typeE
FNDA:0,_ZSt4nextIPKcET_S2_NSt15iterator_traitsIS2_E15difference_typeE
DA:98,0
DA:104,0
DA:138,0
DA:141,0
DA:142,0
DA:174,0
DA:185,0
DA:186,0
DA:202,0
DA:205,0
DA:206,0
DA:207,0
DA:213,0
DA:218,0
DA:219,0
end_of_record
SF:C:
Users
USER
Documents
UFMG
6
teste
testes_tp
build/C:/Qt/6.6.0/mingw_64/include/QtCore/qflags.h
FN:73,_ZN6QFlagsIN2Qt13AlignmentFlagEEC1Ev
FNDA:0,_ZN6QFlagsIN2Qt13AlignmentFlagEEC1Ev
FN:73,_ZN6QFlagsIN2Qt10WindowTypeEEC1Ev
FNDA:0,_ZN6QFlagsIN2Qt10WindowTypeEEC1Ev
DA:73,0
DA:73,0
end_of_record
SF:C:
Users
USER
Documents
UFMG
6
teste
testes_tp
build/..
cadastrar.cpp
FN:4,_ZN9cadastrarC2EP7QWidget
FNDA:1,_ZN9cadastrarC2EP7QWidget
FN:11,_ZN9cadastrarD0Ev
FNDA:0,_ZN9cadastrarD0Ev
FN:11,_ZN9cadastrarD2Ev
FNDA:1,_ZN9cadastrarD2Ev
FN:16,_ZN9cadastrar27on_cadastrarusuario_clickedEv
FNDA:0,_ZN9cadastrar27on_cadastrarusuario_clickedEv
FN:23,_ZN9cadastrar19on_cancelar_clickedEv
FNDA:0,_ZN9cadastrar19on_cancelar_clickedEv
DA:4,1
DA:6,1
DA:8,1
DA:9,1
DA:11,0
DA:14,0
DA:11,1
DA:13,1
DA:14,1
DA:16,0
DA:18,0
DA:19,0
DA:20,0
DA:23,0
DA:25,0
DA:26,0
end_of_record
SF:C:
Users
USER
Documents
UFMG
6
teste
testes_tp
build/C:/Qt/Tools/mingw1120_64/lib/gcc/x86_64-w64-mingw32/11.2.0/include/c++/bits/atomic_base.h
FN:104,_ZStanSt12memory_orderSt23__memory_order_modifier
FNDA:0,_ZStanSt12memory_orderSt23__memory_order_modifier
DA:104,0
DA:106,0
DA:477,0
DA:481,0
DA:646,0
end_of_record
SF:C:
Users
USER
Documents
UFMG
6
teste
testes_tp
build/C:/Qt/6.6.0/mingw_64/include/QtCore/qstring.h
FN:188,_ZNK7QString7isEmptyEv
FNDA:0,_ZNK7QString7isEmptyEv
FN:782,_ZN7QStringC1EPKc
FNDA:0,_ZN7QStringC1EPKc
FN:1168,_ZN7QStringC1Ev
FNDA:0,_ZN7QStringC1Ev
FN:1169,_ZN7QStringD1Ev
FNDA:0,_ZN7QStringD1Ev
DA:188,0
DA:782,0
DA:783,0
DA:784,0
DA:1168,0
DA:1169,0
end_of_record
SF:C:
Users
USER
Documents
UFMG
6
teste
testes_tp
build/C:/Qt/6.6.0/mingw_64/include/QtCore/qbytearrayview.h
FN:67,_ZN9QtPrivateL19lengthHelperPointerIcEExPKT_
FNDA:0,_ZN9QtPrivateL19lengthHelperPointerIcEExPKT_
FN:116,_ZN14QByteArrayView21lengthHelperCharArrayEPKcy
FNDA:0,_ZN14QByteArrayView21lengthHelperCharArrayEPKcy
FN:126,_ZN14QByteArrayView10castHelperEPKc
FNDA:0,_ZN14QByteArrayView10castHelperEPKc
FN:136,_ZN14QByteArrayViewC1IcLb1EEEPKT_x
FNDA:0,_ZN14QByteArrayViewC1IcLb1EEEPKT_x
FN:149,_ZN14QByteArrayViewC1IPKcLb1EEERKT_
FNDA:0,_ZN14QByteArrayViewC1IPKcLb1EEERKT_
FN:166,_ZN14QByteArrayViewC1ILy59EEERAT__Kc
FNDA:17,_ZN14QByteArrayViewC1ILy59EEERAT__Kc
FN:166,_ZN14QByteArrayViewC1ILy98EEERAT__Kc
FNDA:21,_ZN14QByteArrayViewC1ILy98EEERAT__Kc
FN:166,_ZN14QByteArrayViewC1ILy1EEERAT__Kc
FNDA:7,_ZN14QByteArrayViewC1ILy1EEERAT__Kc
FN:166,_ZN14QByteArrayViewC1ILy261EEERAT__Kc
FNDA:19,_ZN14QByteArrayViewC1ILy261EEERAT__Kc
DA:67,0
DA:69,0
DA:116,0
DA:118,0
DA:119,0
DA:120,0
DA:126,0
DA:127,0
DA:136,0
DA:137,0
DA:138,0
DA:149,0
DA:151,0
DA:166,17
DA:167,17
DA:166,21
DA:167,21
DA:166,7
DA:167,7
DA:166,19
DA:167,19
end_of_record
TN:
SF:C:
Users
USER
Documents
UFMG
6
teste
testes_tp
build/C:/Qt/6.6.0/mingw_64/include/QtCore/qrect.h
FN:154,_ZN5QRectC1Eiiii
FNDA:0,_ZN5QRectC1Eiiii
DA:154,0
DA:155,0
end_of_record
SF:C:
Users
USER
Documents
UFMG
6
teste
testes_tp
build/C:/Qt/6.6.0/mingw_64/include/QtCore/qbytearrayalgorithms.h
FN:98,_Z7qstrlenPKc
FNDA:0,_Z7qstrlenPKc
DA:98,0
DA:106,0
end_of_record
SF:C:
Users
USER
Documents
UFMG
6
teste
testes_tp
build/C:/Qt/6.6.0/mingw_64/include/QtCore/qatomic_cxx11.h
FN:199,_ZN10QAtomicOpsIiE11loadRelaxedIiEET_RKSt6atomicIS2_E
FNDA:0,_ZN10QAtomicOpsIiE11loadRelaxedIiEET_RKSt6atomicIS2_E
FN:243,_ZN10QAtomicOpsIiE3refIiEEbRSt6atomicIT_E
FNDA:0,_ZN10QAtomicOpsIiE3refIiEEbRSt6atomicIT_E
FN:262,_ZN10QAtomicOpsIiE5derefIiEEbRSt6atomicIT_E
FNDA:0,_ZN10QAtomicOpsIiE5derefIiEEbRSt6atomicIT_E
DA:199,0
DA:201,0
DA:243,0
DA:258,0
DA:262,0
DA:265,0
end_of_record
SF:C:
Users
USER
Documents
UFMG
6
teste
testes_tp
build/C:/Qt/6.6.0/mingw_64/include/QtCore/qarraydata.h
FN:49,_ZN10QArrayData3refEv
FNDA:0,_ZN10QArrayData3refEv
FN:56,_ZN10QArrayData5derefEv
FNDA:0,_ZN10QArrayData5derefEv
DA:49,0
DA:51,0
DA:52,0
DA:56,0
DA:58,0
end_of_record
SF:C:
Users
USER
Documents
UFMG
6
teste
testes_tp
build/C:/Qt/6.6.0/mingw_64/include/QtCore/qarraydataops.h
FN:95,_ZN9QtPrivate12QPodArrayOpsIDsE10destroyAllEv
FNDA:0,_ZN9QtPrivate12QPodArrayOpsIDsE10destroyAllEv
DA:95,0
DA:97,0
DA:98,0
DA:102,0
end_of_record
SF:C:
Users
USER
Documents
UFMG
6
teste
testes_tp
build/ui_login.h
FN:52,_ZN8Ui_login7setupUiEP11QMainWindow
FNDA:14,_ZN8Ui_login7setupUiEP11QMainWindow
FN:234,_ZN8Ui_login13retranslateUiEP11QMainWindow
FNDA:14,_ZN8Ui_login13retranslateUiEP11QMainWindow
DA:52,14
DA:54,14
DA:55,14
DA:56,14
DA:57,14
DA:60,14
DA:61,14
DA:62,14
DA:63,14
DA:64,14
DA:65,14
DA:66,14
DA:67,14
DA:68,14
DA:69,14
DA:70,14
DA:71,14
DA:72,14
DA:73,14
DA:74,14
DA:75,14
DA:76,14
DA:77,14
DA:78,14
DA:79,14
DA:80,14
DA:109,14
DA:111,14
DA:112,14
DA:113,14
DA:116,14
DA:117,14
DA:119,14
DA:122,14
DA:124,14
DA:125,14
DA:126,14
DA:127,14
DA:128,14
DA:129,14
DA:130,14
DA:159,14
DA:161,14
DA:162,14
DA:163,14
DA:167,14
DA:169,14
DA:172,14
DA:175,14
DA:178,14
DA:181,14
DA:184,14
DA:186,14
DA:187,14
DA:188,14
DA:189,14
DA:190,14
DA:197,14
DA:199,14
DA:200,14
DA:201,14
DA:208,14
DA:211,14
DA:214,14
DA:216,14
DA:217,14
DA:218,14
DA:219,14
DA:220,14
DA:221,14
DA:222,14
DA:223,14
DA:224,14
DA:225,14
DA:227,14
DA:229,14
DA:231,14
DA:232,14
DA:234,14
DA:236,14
DA:237,14
DA:238,14
DA:239,14
DA:240,14
DA:241,14
DA:242,14
DA:243,14
DA:244,14
DA:245,14
DA:246,14
end_of_record
SF:C:
Users
USER
Documents
UFMG
6
teste
testes_tp
build/C:/Qt/Tools/mingw1120_64/lib/gcc/x86_64-w64-mingw32/11.2.0/include/c++/bits/range_access.h
FN:310,_ZSt4dataIKcLy5EEPT_RAT0__S1_
FNDA:0,_ZSt4dataIKcLy5EEPT_RAT0__S1_
FN:310,_ZSt4dataIKcLy12EEPT_RAT0__S1_
FNDA:20,_ZSt4dataIKcLy12EEPT_RAT0__S1_
FN:310,_ZSt4dataIKcLy8EEPT_RAT0__S1_
FNDA:0,_ZSt4dataIKcLy8EEPT_RAT0__S1_
FN:310,_ZSt4dataIKcLy19EEPT_RAT0__S1_
FNDA:0,_ZSt4dataIKcLy19EEPT_RAT0__S1_
FN:310,_ZSt4dataIKcLy15EEPT_RAT0__S1_
FNDA:0,_ZSt4dataIKcLy15EEPT_RAT0__S1_
FN:310,_ZSt4dataIKcLy17EEPT_RAT0__S1_
FNDA:0,_ZSt4dataIKcLy17EEPT_RAT0__S1_
FN:310,_ZSt4dataIKcLy13EEPT_RAT0__S1_
FNDA:0,_ZSt4dataIKcLy13EEPT_RAT0__S1_
FN:310,_ZSt4dataIKcLy14EEPT_RAT0__S1_
FNDA:0,_ZSt4dataIKcLy14EEPT_RAT0__S1_
FN:310,_ZSt4dataIKcLy6EEPT_RAT0__S1_
FNDA:0,_ZSt4dataIKcLy6EEPT_RAT0__S1_
FN:310,_ZSt4dataIKcLy10EEPT_RAT0__S1_
FNDA:0,_ZSt4dataIKcLy10EEPT_RAT0__S1_
DA:310,0
DA:311,0
DA:310,20
DA:311,20
DA:310,0
DA:311,0
DA:310,0
DA:311,0
DA:310,0
DA:311,0
DA:310,0
DA:311,0
DA:310,0
DA:311,0
DA:310,0
DA:311,0
DA:310,0
DA:311,0
DA:310,0
DA:311,0
end_of_record
SF:C:
Users
USER
Documents
UFMG
6
teste
testes_tp
build/C:/Qt/6.6.0/mingw_64/include/QtWidgets/qwidget.h
FN:883,_ZN7QWidget6resizeEii
FNDA:0,_ZN7QWidget6resizeEii
DA:883,0
DA:884,0
end_of_record
SF:C:
Users
USER
Documents
UFMG
6
teste
testes_tp
build/C:/Qt/6.6.0/mingw_64/include/QtCore/qanystringview.h
FN:101,_ZN14QAnyStringView29isAsciiOnlyCharsAtCompileTimeIKcEEbPT_x
FNDA:0,_ZN14QAnyStringView29isAsciiOnlyCharsAtCompileTimeIKcEEbPT_x
FN:131,_ZN14QAnyStringView10encodeTypeIcEEyPKT_x
FNDA:0,_ZN14QAnyStringView10encodeTypeIcEEyPKT_x
FN:166,_ZN14QAnyStringView21lengthHelperContainerIcLy15EEExRAT0__KT_
FNDA:0,_ZN14QAnyStringView21lengthHelperContainerIcLy15EEExRAT0__KT_
FN:166,_ZN14QAnyStringView21lengthHelperContainerIcLy10EEExRAT0__KT_
FNDA:0,_ZN14QAnyStringView21lengthHelperContainerIcLy10EEExRAT0__KT_
FN:166,_ZN14QAnyStringView21lengthHelperContainerIcLy6EEExRAT0__KT_
FNDA:0,_ZN14QAnyStringView21lengthHelperContainerIcLy6EEExRAT0__KT_
FN:166,_ZN14QAnyStringView21lengthHelperContainerIcLy14EEExRAT0__KT_
FNDA:0,_ZN14QAnyStringView21lengthHelperContainerIcLy14EEExRAT0__KT_
FN:166,_ZN14QAnyStringView21lengthHelperContainerIcLy13EEExRAT0__KT_
FNDA:0,_ZN14QAnyStringView21lengthHelperContainerIcLy13EEExRAT0__KT_
FN:166,_ZN14QAnyStringView21lengthHelperContainerIcLy17EEExRAT0__KT_
FNDA:0,_ZN14QAnyStringView21lengthHelperContainerIcLy17EEExRAT0__KT_
FN:166,_ZN14QAnyStringView21lengthHelperContainerIcLy19EEExRAT0__KT_
FNDA:0,_ZN14QAnyStringView21lengthHelperContainerIcLy19EEExRAT0__KT_
FN:166,_ZN14QAnyStringView21lengthHelperContainerIcLy8EEExRAT0__KT_
FNDA:0,_ZN14QAnyStringView21lengthHelperContainerIcLy8EEExRAT0__KT_
FN:166,_ZN14QAnyStringView21lengthHelperContainerIcLy12EEExRAT0__KT_
FNDA:20,_ZN14QAnyStringView21lengthHelperContainerIcLy12EEExRAT0__KT_
FN:166,_ZN14QAnyStringView21lengthHelperContainerIcLy5EEExRAT0__KT_
FNDA:0,_ZN14QAnyStringView21lengthHelperContainerIcLy5EEExRAT0__KT_
FN:186,_ZN14QAnyStringViewC1IcLb1EEEPKT_x
FNDA:0,_ZN14QAnyStringViewC1IcLb1EEEPKT_x
FN:214,_ZN14QAnyStringViewC1IA19_cLb1EEERKT_
FNDA:0,_ZN14QAnyStringViewC1IA19_cLb1EEERKT_
FN:214,_ZN14QAnyStringViewC1IA15_cLb1EEERKT_
FNDA:0,_ZN14QAnyStringViewC1IA15_cLb1EEERKT_
FN:214,_ZN14QAnyStringViewC1IA17_cLb1EEERKT_
FNDA:0,_ZN14QAnyStringViewC1IA17_cLb1EEERKT_
FN:214,_ZN14QAnyStringViewC1IA8_cLb1EEERKT_
FNDA:0,_ZN14QAnyStringViewC1IA8_cLb1EEERKT_
FN:214,_ZN14QAnyStringViewC1IA13_cLb1EEERKT_
FNDA:0,_ZN14QAnyStringViewC1IA13_cLb1EEERKT_
FN:214,_ZN14QAnyStringViewC1IA14_cLb1EEERKT_
FNDA:0,_ZN14QAnyStringViewC1IA14_cLb1EEERKT_
FN:214,_ZN14QAnyStringViewC1IA12_cLb1EEERKT_
FNDA:20,_ZN14QAnyStringViewC1IA12_cLb1EEERKT_
FN:214,_ZN14QAnyStringViewC1IA6_cLb1EEERKT_
FNDA:0,_ZN14QAnyStringViewC1IA6_cLb1EEERKT_
FN:214,_ZN14QAnyStringViewC1IA10_cLb1EEERKT_
FNDA:0,_ZN14QAnyStringViewC1IA10_cLb1EEERKT_
FN:214,_ZN14QAnyStringViewC1IA5_cLb1EEERKT_
FNDA:0,_ZN14QAnyStringViewC1IA5_cLb1EEERKT_
DA:101,0
DA:114,0
DA:131,0
DA:134,0
DA:135,0
DA:136,0
DA:137,0
DA:139,0
DA:166,0
DA:168,0
DA:169,0
DA:170,0
DA:166,20
DA:168,20
DA:169,20
DA:170,20
DA:166,0
DA:168,0
DA:169,0
DA:170,0
DA:166,0
DA:168,0
DA:169,0
DA:170,0
DA:166,0
DA:168,0
DA:169,0
DA:170,0
DA:166,0
DA:168,0
DA:169,0
DA:170,0
DA:166,0
DA:168,0
DA:169,0
DA:170,0
DA:166,0
DA:168,0
DA:169,0
DA:170,0
DA:166,0
DA:168,0
DA:169,0
DA:170,0
DA:166,0
DA:168,0
DA:169,0
DA:170,0
DA:186,0
DA:187,0
DA:189,0
DA:214,0
DA:215,0
DA:214,20
DA:215,20
DA:214,0
DA:215,0
DA:214,0
DA:215,0
DA:214,0
DA:215,0
DA:214,0
DA:215,0
DA:214,0
DA:215,0
DA:214,0
DA:215,0
DA:214,0
DA:215,0
DA:214,0
DA:215,0
end_of_record
SF:C:
Users
USER
Documents
UFMG
6
teste
testes_tp
build/C:/Qt/Tools/mingw1120_64/lib/gcc/x86_64-w64-mingw32/11.2.0/include/c++/bits/stl_iterator_base_types.h
FN:238,_ZSt19__iterator_categoryIPKcENSt15iterator_traitsIT_E17iterator_categoryERKS3_
FNDA:0,_ZSt19__iterator_categoryIPKcENSt15iterator_traitsIT_E17iterator_categoryERKS3_
DA:238,0
DA:239,0
end_of_record
SF:C:
Users
USER
Documents
UFMG
6
teste
testes_tp
build/C:/Qt/6.6.0/mingw_64/include/QtCore/qbasicatomic.h
FN:38,_ZNK19QBasicAtomicIntegerIiE11loadRelaxedEv
FNDA:0,_ZNK19QBasicAtomicIntegerIiE11loadRelaxedEv
FN:49,_ZN19QBasicAtomicIntegerIiE3refEv
FNDA:0,_ZN19QBasicAtomicIntegerIiE3refEv
FN:50,_ZN19QBasicAtomicIntegerIiE5derefEv
FNDA:0,_ZN19QBasicAtomicIntegerIiE5derefEv
DA:38,0
DA:49,0
DA:50,0
end_of_record
SF:C:
Users
USER
Documents
UFMG
6
teste
testes_tp
build/C:/Qt/6.6.0/mingw_64/include/QtCore/qlatin1stringview.h
FN:49,_ZN13QLatin1StringC1EPKc
FNDA:14,_ZN13QLatin1StringC1EPKc
FN:61,_ZNK13QLatin1String4sizeEv
FNDA:14,_ZNK13QLatin1String4sizeEv
FN:62,_ZNK13QLatin1String4dataEv
FNDA:14,_ZNK13QLatin1String4dataEv
DA:49,14
DA:50,14
DA:61,14
DA:62,14
end_of_record
SF:C:
Users
USER
Documents
UFMG
6
teste
testes_tp
build/C:/Qt/Tools/mingw1120_64/lib/gcc/x86_64-w64-mingw32/11.2.0/include/c++/bits/move.h
FN:104,_ZSt4moveIRxEONSt16remove_referenceIT_E4typeEOS2_
FNDA:0,_ZSt4moveIRxEONSt16remove_referenceIT_E4typeEOS2_
FN:196,_ZSt4swapIxENSt9enable_ifIXsrSt6__and_IJSt6__not_ISt15__is_tuple_likeIT_EESt21is_move_constructibleIS4_ESt18is_move_assignableIS4_EEE5valueEvE4typeERS4_SE_
FNDA:0,_ZSt4swapIxENSt9enable_ifIXsrSt6__and_IJSt6__not_ISt15__is_tuple_likeIT_EESt21is_move_constructibleIS4_ESt18is_move_assignableIS4_EEE5valueEvE4typeERS4_SE_
DA:104,0
DA:105,0
DA:196,0
DA:204,0
DA:205,0
DA:206,0
DA:207,0
end_of_record
SF:C:
Users
USER
Documents
UFMG
6
teste
testes_tp
build/C:/Qt/6.6.0/mingw_64/include/QtCore/qsize.h
FN:118,_ZN5QSizeC1Eii
FNDA:0,_ZN5QSizeC1Eii
DA:118,0
end_of_record
SF:C:
Users
USER
Documents
UFMG
6
teste
testes_tp
build/C:/Qt/6.6.0/mingw_64/include/QtCore/qarraydatapointer.h
FN:31,_ZN17QArrayDataPointerIDsEC1Ev
FNDA:0,_ZN17QArrayDataPointerIDsEC1Ev
FN:37,_ZN17QArrayDataPointerIDsEC1ERKS0_
FNDA:0,_ZN17QArrayDataPointerIDsEC1ERKS0_
FN:85,_ZN17QArrayDataPointerIDsEptEv
FNDA:0,_ZN17QArrayDataPointerIDsEptEv
FN:100,_ZN17QArrayDataPointerIDsED1Ev
FNDA:0,_ZN17QArrayDataPointerIDsED1Ev
FN:114,_ZNK17QArrayDataPointerIDsE4dataEv
FNDA:0,_ZNK17QArrayDataPointerIDsE4dataEv
FN:123,_ZN17QArrayDataPointerIDsE4swapERS0_
FNDA:0,_ZN17QArrayDataPointerIDsE4swapERS0_
FN:412,_ZN17QArrayDataPointerIDsE3refEv
FNDA:0,_ZN17QArrayDataPointerIDsE3refEv
FN:413,_ZN17QArrayDataPointerIDsE5derefEv
FNDA:0,_ZN17QArrayDataPointerIDsE5derefEv
DA:31,0
DA:32,0
DA:34,0
DA:37,0
DA:38,0
DA:40,0
DA:41,0
DA:85,0
DA:87,0
DA:100,0
DA:102,0
DA:103,0
DA:104,0
DA:106,0
DA:114,0
DA:123,0
DA:125,0
DA:126,0
DA:127,0
DA:128,0
DA:412,0
DA:413,0
end_of_record
SF:C:
Users
USER
Documents
UFMG
6
teste
testes_tp
build/..
login.h
end_of_record
SF:C:
Users
USER
Documents
UFMG
6
teste
testes_tp
build/C:/Qt/6.6.0/mingw_64/include/QtCore/qswap.h
FN:43,_Z11qt_ptr_swapIDsEvRPT_S2_
FNDA:0,_Z11qt_ptr_swapIDsEvRPT_S2_
FN:43,_Z11qt_ptr_swapI15QTypedArrayDataIDsEEvRPT_S4_
FNDA:0,_Z11qt_ptr_swapI15QTypedArrayDataIDsEEvRPT_S4_
DA:43,0
DA:45,0
DA:46,0
DA:47,0
DA:48,0
DA:43,0
DA:45,0
DA:46,0
DA:47,0
DA:48,0
end_of_record
SF:C:
Users
USER
Documents
UFMG
6
teste
testes_tp
build/..
login.cpp
FN:4,_ZN5loginC2EP7QWidget
FNDA:14,_ZN5loginC2EP7QWidget
FN:18,_ZN5loginD0Ev
FNDA:0,_ZN5loginD0Ev
FN:18,_ZN5loginD2Ev
FNDA:14,_ZN5loginD2Ev
FN:23,_ZN5login22on_logintoprin_clickedEv
FNDA:0,_ZN5login22on_logintoprin_clickedEv
FN:47,_ZN5login20on_cadastrar_clickedEv
FNDA:0,_ZN5login20on_cadastrar_clickedEv
DA:4,14
DA:6,14
DA:8,14
DA:10,28
DA:11,14
DA:12,14
DA:13,0
DA:14,0
DA:16,14
DA:18,0
DA:21,0
DA:18,14
DA:20,14
DA:21,14
DA:23,0
DA:25,0
DA:26,0
DA:28,0
DA:29,0
DA:30,0
DA:31,0
DA:32,0
DA:33,0
DA:34,0
DA:36,0
DA:38,0
DA:42,0
DA:44,0
DA:47,0
DA:49,0
DA:50,0
DA:51,0
end_of_record
SF:C:
Users
USER
Documents
UFMG
6
teste
testes_tp
build/C:/Qt/Tools/mingw1120_64/lib/gcc/x86_64-w64-mingw32/11.2.0/include/c++/bits/char_traits.h
FN:106,_ZN9__gnu_cxx11char_traitsIcE2eqERKcS3_
FNDA:0,_ZN9__gnu_cxx11char_traitsIcE2eqERKcS3_
FN:167,_ZN9__gnu_cxx11char_traitsIcE6lengthEPKc
FNDA:0,_ZN9__gnu_cxx11char_traitsIcE6lengthEPKc
FN:178,_ZN9__gnu_cxx11char_traitsIcE4findEPKcyRS2_
FNDA:0,_ZN9__gnu_cxx11char_traitsIcE4findEPKcyRS2_
FN:365,_ZNSt11char_traitsIcE6lengthEPKc
FNDA:0,_ZNSt11char_traitsIcE6lengthEPKc
FN:375,_ZNSt11char_traitsIcE4findEPKcyRS1_
FNDA:0,_ZNSt11char_traitsIcE4findEPKcyRS1_
DA:106,0
DA:107,0
DA:167,0
DA:170,0
DA:171,0
DA:172,0
DA:173,0
DA:178,0
DA:181,0
DA:182,0
DA:183,0
DA:184,0
DA:262,0
DA:365,0
DA:368,0
DA:369,0
DA:371,0
DA:375,0
DA:377,0
DA:378,0
DA:380,0
DA:382,0
DA:383,0
DA:385,0
end_of_record
SF:C:
Users
USER
Documents
UFMG
6
teste
testes_tp
build/C:/Qt/Tools/mingw1120_64/lib/gcc/x86_64-w64-mingw32/11.2.0/include/c++/bits/stl_iterator_base_funcs.h
FN:98,_ZSt10__distanceIPKcENSt15iterator_traitsIT_E15difference_typeES3_S3_St26random_access_iterator_tag
FNDA:0,_ZSt10__distanceIPKcENSt15iterator_traitsIT_E15difference_typeES3_S3_St26random_access_iterator_tag
FN:138,_ZSt8distanceIPKcENSt15iterator_traitsIT_E15difference_typeES3_S3_
FNDA:0,_ZSt8distanceIPKcENSt15iterator_traitsIT_E15difference_typeES3_S3_
FN:174,_ZSt9__advanceIPKcxEvRT_T0_St26random_access_iterator_tag
FNDA:0,_ZSt9__advanceIPKcxEvRT_T0_St26random_access_iterator_tag
FN:202,_ZSt7advanceIPKcxEvRT_T0_
FNDA:0,_ZSt7advanceIPKcxEvRT_T0_
FN:213,_ZSt4nextIPKcET_S2_NSt15iterator_traitsIS2_E15difference_typeE
FNDA:0,_ZSt4nextIPKcET_S2_NSt15iterator_traitsIS2_E15difference_typeE
DA:98,0
DA:104,0
DA:138,0
DA:141,0
DA:142,0
DA:174,0
DA:185,0
DA:186,0
DA:202,0
DA:205,0
DA:206,0
DA:207,0
DA:213,0
DA:218,0
DA:219,0
end_of_record
SF:C:
Users
USER
Documents
UFMG
6
teste
testes_tp
build/C:/Qt/6.6.0/mingw_64/include/QtCore/qflags.h
FN:73,_ZN6QFlagsIN2Qt13AlignmentFlagEEC1Ev
FNDA:0,_ZN6QFlagsIN2Qt13AlignmentFlagEEC1Ev
FN:73,_ZN6QFlagsIN2Qt10WindowTypeEEC1Ev
FNDA:0,_ZN6QFlagsIN2Qt10WindowTypeEEC1Ev
FN:74,_ZN6QFlagsIN11QMessageBox14StandardButtonEEC1ES1_
FNDA:0,_ZN6QFlagsIN11QMessageBox14StandardButtonEEC1ES1_
DA:73,0
DA:73,0
DA:74,0
end_of_record
SF:C:
Users
USER
Documents
UFMG
6
teste
testes_tp
build/C:/Qt/6.6.0/mingw_64/include/QtCore/qbytearrayview.h
FN:67,_ZN9QtPrivateL19lengthHelperPointerIcEExPKT_
FNDA:14,_ZN9QtPrivateL19lengthHelperPointerIcEExPKT_
FN:116,_ZN14QByteArrayView21lengthHelperCharArrayEPKcy
FNDA:0,_ZN14QByteArrayView21lengthHelperCharArrayEPKcy
FN:126,_ZN14QByteArrayView10castHelperEPKc
FNDA:0,_ZN14QByteArrayView10castHelperEPKc
FN:136,_ZN14QByteArrayViewC1IcLb1EEEPKT_x
FNDA:0,_ZN14QByteArrayViewC1IcLb1EEEPKT_x
FN:149,_ZN14QByteArrayViewC1IPKcLb1EEERKT_
FNDA:0,_ZN14QByteArrayViewC1IPKcLb1EEERKT_
FN:166,_ZN14QByteArrayViewC1ILy135EEERAT__Kc
FNDA:0,_ZN14QByteArrayViewC1ILy135EEERAT__Kc
FN:166,_ZN14QByteArrayViewC1ILy85EEERAT__Kc
FNDA:14,_ZN14QByteArrayViewC1ILy85EEERAT__Kc
FN:166,_ZN14QByteArrayViewC1ILy409EEERAT__Kc
FNDA:14,_ZN14QByteArrayViewC1ILy409EEERAT__Kc
FN:166,_ZN14QByteArrayViewC1ILy59EEERAT__Kc
FNDA:0,_ZN14QByteArrayViewC1ILy59EEERAT__Kc
FN:166,_ZN14QByteArrayViewC1ILy437EEERAT__Kc
FNDA:14,_ZN14QByteArrayViewC1ILy437EEERAT__Kc
FN:166,_ZN14QByteArrayViewC1ILy261EEERAT__Kc
FNDA:0,_ZN14QByteArrayViewC1ILy261EEERAT__Kc
DA:67,14
DA:69,14
DA:116,0
DA:118,0
DA:119,0
DA:120,0
DA:126,0
DA:127,0
DA:136,0
DA:137,0
DA:138,0
DA:149,0
DA:151,0
DA:166,0
DA:167,0
DA:166,14
DA:167,14
DA:166,14
DA:167,14
DA:166,0
DA:167,0
DA:166,14
DA:167,14
DA:166,0
DA:167,0
end_of_record
SF:C:
Users
USER
Documents
UFMG
6
teste
testes_tp
build/C:/Qt/6.6.0/mingw_64/include/QtCore/qstring.h
FN:180,_ZN7QStringaSEOS_
FNDA:0,_ZN7QStringaSEOS_
FN:181,_ZN7QString4swapERS_
FNDA:0,_ZN7QString4swapERS_
FN:182,_ZNK7QString4sizeEv
FNDA:0,_ZNK7QString4sizeEv
FN:188,_ZNK7QString7isEmptyEv
FNDA:0,_ZNK7QString7isEmptyEv
FN:582,_ZN7QString10fromLatin1EPKcx
FNDA:14,_ZN7QString10fromLatin1EPKcx
FN:782,_ZN7QStringC1EPKc
FNDA:0,_ZN7QStringC1EPKc
FN:1077,_ZN7QStringC1E13QLatin1String
FNDA:14,_ZN7QStringC1E13QLatin1String
FN:1085,_ZNK7QString4dataEv
FNDA:0,_ZNK7QString4dataEv
FN:1099,_ZNK7QString9constDataEv
FNDA:0,_ZNK7QString9constDataEv
FN:1107,_ZN7QStringC1ERKS_
FNDA:0,_ZN7QStringC1ERKS_
FN:1168,_ZN7QStringC1Ev
FNDA:0,_ZN7QStringC1Ev
FN:1169,_ZN7QStringD1Ev
FNDA:0,_ZN7QStringD1Ev
FN:1221,_ZNK7QStringeqEPKc
FNDA:0,_ZNK7QStringeqEPKc
DA:180,0
DA:181,0
DA:182,0
DA:188,0
DA:582,14
DA:584,14
DA:782,0
DA:783,0
DA:784,0
DA:1077,14
DA:1078,14
DA:1085,0
DA:1088,0
DA:1099,0
DA:1100,0
DA:1107,0
DA:1108,0
DA:1168,0
DA:1169,0
DA:1221,0
DA:1222,0
end_of_record
SF:C:
Users
USER
Documents
UFMG
6
teste
testes_tp
build/C:/Qt/Tools/mingw1120_64/lib/gcc/x86_64-w64-mingw32/11.2.0/include/c++/bits/atomic_base.h
FN:104,_ZStanSt12memory_orderSt23__memory_order_modifier
FNDA:0,_ZStanSt12memory_orderSt23__memory_order_modifier
DA:104,0
DA:106,0
DA:477,0
DA:481,0
DA:636,0
DA:646,0
end_of_record
TN:
SF:C:
Users
USER
Documents
UFMG
6
teste
testes_tp
build/..
main_app.cpp
FN:5,_Z8main_appiPPc
FNDA:0,_Z8main_appiPPc
DA:5,0
DA:7,0
DA:8,0
DA:9,0
DA:10,0
DA:11,0
end_of_record
TN:
SF:C:
Users
USER
Documents
UFMG
6
teste
testes_tp
build/C:/Qt/6.6.0/mingw_64/include/QtCore/qpair.h
FN:19,_Z9qMakePairIP15QTypedArrayDataI5QListI7QStringEEPS3_EDcOT_OT0_
FNDA:43,_Z9qMakePairIP15QTypedArrayDataI5QListI7QStringEEPS3_EDcOT_OT0_
FN:19,_Z9qMakePairIP15QTypedArrayDataI7QStringEPS1_EDcOT_OT0_
FNDA:0,_Z9qMakePairIP15QTypedArrayDataI7QStringEPS1_EDcOT_OT0_
DA:19,43
DA:22,43
DA:19,0
DA:22,0
end_of_record
SF:C:
Users
USER
Documents
UFMG
6
teste
testes_tp
build/C:/Qt/Tools/mingw1120_64/lib/gcc/x86_64-w64-mingw32/11.2.0/include/c++/bits/char_traits.h
FN:106,_ZN9__gnu_cxx11char_traitsIcE2eqERKcS3_
FNDA:0,_ZN9__gnu_cxx11char_traitsIcE2eqERKcS3_
FN:167,_ZN9__gnu_cxx11char_traitsIcE6lengthEPKc
FNDA:0,_ZN9__gnu_cxx11char_traitsIcE6lengthEPKc
FN:365,_ZNSt11char_traitsIcE6lengthEPKc
FNDA:0,_ZNSt11char_traitsIcE6lengthEPKc
DA:106,0
DA:107,0
DA:167,0
DA:170,0
DA:171,0
DA:172,0
DA:173,0
DA:262,0
DA:365,0
DA:368,0
DA:369,0
DA:371,0
end_of_record
SF:C:
Users
USER
Documents
UFMG
6
teste
testes_tp
build/C:/Qt/Tools/mingw1120_64/lib/gcc/x86_64-w64-mingw32/11.2.0/include/c++/initializer_list
FN:71,_ZNKSt16initializer_listI5QListI7QStringEE4sizeEv
FNDA:117,_ZNKSt16initializer_listI5QListI7QStringEE4sizeEv
FN:71,_ZNKSt16initializer_listI7QStringE4sizeEv
FNDA:0,_ZNKSt16initializer_listI7QStringE4sizeEv
FN:75,_ZNKSt16initializer_listI5QListI7QStringEE5beginEv
FNDA:78,_ZNKSt16initializer_listI5QListI7QStringEE5beginEv
FN:75,_ZNKSt16initializer_listI7QStringE5beginEv
FNDA:0,_ZNKSt16initializer_listI7QStringE5beginEv
FN:79,_ZNKSt16initializer_listI5QListI7QStringEE3endEv
FNDA:39,_ZNKSt16initializer_listI5QListI7QStringEE3endEv
FN:79,_ZNKSt16initializer_listI7QStringE3endEv
FNDA:0,_ZNKSt16initializer_listI7QStringE3endEv
DA:71,117
DA:71,0
DA:75,78
DA:75,0
DA:79,39
DA:79,0
end_of_record
SF:C:
Users
USER
Documents
UFMG
6
teste
testes_tp
build/C:/Qt/6.6.0/mingw_64/include/QtCore/qbytearrayview.h
FN:67,_ZN9QtPrivateL19lengthHelperPointerIcEExPKT_
FNDA:0,_ZN9QtPrivateL19lengthHelperPointerIcEExPKT_
FN:126,_ZN14QByteArrayView10castHelperEPKc
FNDA:0,_ZN14QByteArrayView10castHelperEPKc
FN:136,_ZN14QByteArrayViewC1IcLb1EEEPKT_x
FNDA:0,_ZN14QByteArrayViewC1IcLb1EEEPKT_x
FN:149,_ZN14QByteArrayViewC1IPKcLb1EEERKT_
FNDA:0,_ZN14QByteArrayViewC1IPKcLb1EEERKT_
DA:67,0
DA:69,0
DA:126,0
DA:127,0
DA:136,0
DA:137,0
DA:138,0
DA:149,0
DA:151,0
end_of_record
SF:C:
Users
USER
Documents
UFMG
6
teste
testes_tp
build/C:/Qt/Tools/mingw1120_64/lib/gcc/x86_64-w64-mingw32/11.2.0/include/c++/bits/atomic_base.h
FN:104,_ZStanSt12memory_orderSt23__memory_order_modifier
FNDA:0,_ZStanSt12memory_orderSt23__memory_order_modifier
DA:104,0
DA:106,0
DA:477,0
DA:481,0
DA:636,0
DA:646,0
end_of_record
SF:C:
Users
USER
Documents
UFMG
6
teste
testes_tp
build/C:/Qt/6.6.0/mingw_64/include/QtCore/qstring.h
FN:178,_ZN7QStringC1EOS_
FNDA:0,_ZN7QStringC1EOS_
FN:182,_ZNK7QString4sizeEv
FNDA:0,_ZNK7QString4sizeEv
FN:660,_ZNK7QString5toIntEPbi
FNDA:47,_ZNK7QString5toIntEPbi
FN:694,_ZeqRK7QStringS1_
FNDA:0,_ZeqRK7QStringS1_
FN:782,_ZN7QStringC1EPKc
FNDA:0,_ZN7QStringC1EPKc
FN:898,_ZNK7QString6isNullEv
FNDA:0,_ZNK7QString6isNullEv
FN:970,_ZN7QString17toIntegral_helperIiEET_11QStringViewPbi
FNDA:47,_ZN7QString17toIntegral_helperIiEET_11QStringViewPbi
FN:1085,_ZNK7QString4dataEv
FNDA:0,_ZNK7QString4dataEv
FN:1099,_ZNK7QString9constDataEv
FNDA:0,_ZNK7QString9constDataEv
FN:1107,_ZN7QStringC1ERKS_
FNDA:0,_ZN7QStringC1ERKS_
FN:1169,_ZN7QStringD1Ev
FNDA:0,_ZN7QStringD1Ev
FN:1223,_ZNK7QStringneEPKc
FNDA:0,_ZNK7QStringneEPKc
DA:178,0
DA:182,0
DA:660,47
DA:661,47
DA:694,0
DA:695,0
DA:782,0
DA:783,0
DA:784,0
DA:898,0
DA:970,47
DA:976,47
DA:977,47
DA:978,0
DA:979,0
DA:980,0
DA:982,47
DA:1085,0
DA:1088,0
DA:1099,0
DA:1100,0
DA:1107,0
DA:1108,0
DA:1169,0
DA:1223,0
DA:1224,0
end_of_record
SF:C:
Users
USER
Documents
UFMG
6
teste
testes_tp
build/..
mocked_agenda_de_contatos.cpp
FN:3,_ZN25mocked_agenda_de_contatosC2Ev
FNDA:29,_ZN25mocked_agenda_de_contatosC2Ev
FN:11,_ZN25mocked_agenda_de_contatos9fetchDataEv
FNDA:10,_ZN25mocked_agenda_de_contatos9fetchDataEv
FN:19,_ZN25mocked_agenda_de_contatos18adicionar_contatosERK7QStringS2_S2_S2_
FNDA:0,_ZN25mocked_agenda_de_contatos18adicionar_contatosERK7QStringS2_S2_S2_
FN:26,_ZN25mocked_agenda_de_contatos18atualizar_contatosEiRK7QStringS2_S2_S2_
FNDA:15,_ZN25mocked_agenda_de_contatos18atualizar_contatosEiRK7QStringS2_S2_S2_
FN:46,_ZNK25mocked_agenda_de_contatos15pesquisa_por_idEi
FNDA:15,_ZNK25mocked_agenda_de_contatos15pesquisa_por_idEi
FN:55,_ZNK25mocked_agenda_de_contatos17pesquisa_por_nomeE7QString
FNDA:1,_ZNK25mocked_agenda_de_contatos17pesquisa_por_nomeE7QString
FN:64,_ZNK25mocked_agenda_de_contatos20pesquisa_por_celularE7QString
FNDA:1,_ZNK25mocked_agenda_de_contatos20pesquisa_por_celularE7QString
FN:73,_ZNK25mocked_agenda_de_contatos18pesquisa_por_emailE7QString
FNDA:1,_ZNK25mocked_agenda_de_contatos18pesquisa_por_emailE7QString
FN:82,_ZNK25mocked_agenda_de_contatos22pesquisa_por_categoriaE7QString
FNDA:1,_ZNK25mocked_agenda_de_contatos22pesquisa_por_categoriaE7QString
FN:91,_ZN25mocked_agenda_de_contatos16excluir_contatosEi
FNDA:0,_ZN25mocked_agenda_de_contatos16excluir_contatosEi
DA:3,29
DA:4,667
DA:8,638
DA:9,29
DA:11,10
DA:16,190
DA:19,0
DA:20,0
DA:21,0
DA:22,0
DA:23,0
DA:26,15
DA:27,23
DA:28,23
DA:29,15
DA:30,8
DA:32,15
DA:33,8
DA:35,15
DA:36,8
DA:38,15
DA:39,8
DA:41,15
DA:44,15
DA:46,15
DA:47,23
DA:48,23
DA:49,15
DA:52,0
DA:55,1
DA:56,1
DA:57,1
DA:58,1
DA:61,0
DA:64,1
DA:65,1
DA:66,1
DA:67,1
DA:70,0
DA:73,1
DA:74,1
DA:75,1
DA:76,1
DA:79,0
DA:82,1
DA:83,1
DA:84,1
DA:85,1
DA:88,0
DA:91,0
DA:92,0
DA:93,0
DA:94,0
DA:97,0
end_of_record
SF:C:
Users
USER
Documents
UFMG
6
teste
testes_tp
build/C:/Qt/Tools/mingw1120_64/lib/gcc/x86_64-w64-mingw32/11.2.0/include/c++/bits/stl_iterator_base_funcs.h
FN:98,_ZSt10__distanceIPK7QStringENSt15iterator_traitsIT_E15difference_typeES4_S4_St26random_access_iterator_tag
FNDA:0,_ZSt10__distanceIPK7QStringENSt15iterator_traitsIT_E15difference_typeES4_S4_St26random_access_iterator_tag
FN:98,_ZSt10__distanceIPK5QListI7QStringEENSt15iterator_traitsIT_E15difference_typeES6_S6_St26random_access_iterator_tag
FNDA:0,_ZSt10__distanceIPK5QListI7QStringEENSt15iterator_traitsIT_E15difference_typeES6_S6_St26random_access_iterator_tag
FN:98,_ZSt10__distanceIN5QListIS0_I7QStringEE14const_iteratorEENSt15iterator_traitsIT_E15difference_typeES6_S6_St26random_access_iterator_tag
FNDA:0,_ZSt10__distanceIN5QListIS0_I7QStringEE14const_iteratorEENSt15iterator_traitsIT_E15difference_typeES6_S6_St26random_access_iterator_tag
FN:138,_ZSt8distanceIPK7QStringENSt15iterator_traitsIT_E15difference_typeES4_S4_
FNDA:0,_ZSt8distanceIPK7QStringENSt15iterator_traitsIT_E15difference_typeES4_S4_
FN:138,_ZSt8distanceIPK5QListI7QStringEENSt15iterator_traitsIT_E15difference_typeES6_S6_
FNDA:0,_ZSt8distanceIPK5QListI7QStringEENSt15iterator_traitsIT_E15difference_typeES6_S6_
FN:138,_ZSt8distanceIN5QListIS0_I7QStringEE14const_iteratorEENSt15iterator_traitsIT_E15difference_typeES6_S6_
FNDA:0,_ZSt8distanceIN5QListIS0_I7QStringEE14const_iteratorEENSt15iterator_traitsIT_E15difference_typeES6_S6_
DA:98,0
DA:104,0
DA:98,0
DA:104,0
DA:98,0
DA:104,0
DA:138,0
DA:141,0
DA:142,0
DA:138,0
DA:141,0
DA:142,0
DA:138,0
DA:141,0
DA:142,0
end_of_record
SF:C:
Users
USER
Documents
UFMG
6
teste
testes_tp
build/C:/Qt/Tools/mingw1120_64/lib/gcc/x86_64-w64-mingw32/11.2.0/include/c++/bits/stl_function.h
FN:433,_ZNKSt4lessIPK7QStringEclES2_S2_
FNDA:0,_ZNKSt4lessIPK7QStringEclES2_S2_
FN:433,_ZNKSt4lessIPK5QListI7QStringEEclES4_S4_
FNDA:0,_ZNKSt4lessIPK5QListI7QStringEEclES4_S4_
FN:592,_ZNKSt4lessIvEclIK7QStringS3_EEbPT_PT0_
FNDA:0,_ZNKSt4lessIvEclIK7QStringS3_EEbPT_PT0_
FN:592,_ZNKSt4lessIvEclIK5QListI7QStringES5_EEbPT_PT0_
FNDA:0,_ZNKSt4lessIvEclIK5QListI7QStringES5_EEbPT_PT0_
DA:433,0
DA:443,0
DA:433,0
DA:443,0
DA:592,0
DA:593,0
DA:592,0
DA:593,0
end_of_record
SF:C:
Users
USER
Documents
UFMG
6
teste
testes_tp
build/C:/Qt/6.6.0/mingw_64/include/QtCore/qflags.h
FN:31,_ZN5QFlagC1Ej
FNDA:0,_ZN5QFlagC1Ej
FN:34,_ZNK5QFlagcvjEv
FNDA:0,_ZNK5QFlagcvjEv
FN:74,_ZN6QFlagsIN10QArrayData11ArrayOptionEEC1ES1_
FNDA:13,_ZN6QFlagsIN10QArrayData11ArrayOptionEEC1ES1_
FN:75,_ZN6QFlagsIN10QArrayData11ArrayOptionEEC1E5QFlag
FNDA:0,_ZN6QFlagsIN10QArrayData11ArrayOptionEEC1E5QFlag
FN:103,_ZNK6QFlagsIN10QArrayData11ArrayOptionEEcvjEv
FNDA:0,_ZNK6QFlagsIN10QArrayData11ArrayOptionEEcvjEv
FN:116,_ZNK6QFlagsIN10QArrayData11ArrayOptionEEanES1_
FNDA:0,_ZNK6QFlagsIN10QArrayData11ArrayOptionEEanES1_
DA:31,0
DA:34,0
DA:74,13
DA:75,0
DA:103,0
DA:116,0
end_of_record
SF:C:
Users
USER
Documents
UFMG
6
teste
testes_tp
build/C:/Qt/Tools/mingw1120_64/lib/gcc/x86_64-w64-mingw32/11.2.0/include/c++/bits/stl_construct.h
FN:135,_ZSt8_DestroyI5QListI7QStringEEvPT_
FNDA:0,_ZSt8_DestroyI5QListI7QStringEEvPT_
FN:135,_ZSt8_DestroyI7QStringEvPT_
FNDA:0,_ZSt8_DestroyI7QStringEvPT_
FN:149,_ZNSt12_Destroy_auxILb0EE9__destroyIP5QListI7QStringEEEvT_S6_
FNDA:0,_ZNSt12_Destroy_auxILb0EE9__destroyIP5QListI7QStringEEEvT_S6_
FN:149,_ZNSt12_Destroy_auxILb0EE9__destroyIP7QStringEEvT_S4_
FNDA:0,_ZNSt12_Destroy_auxILb0EE9__destroyIP7QStringEEvT_S4_
FN:171,_ZSt8_DestroyIP5QListI7QStringEEvT_S4_
FNDA:0,_ZSt8_DestroyIP5QListI7QStringEEvT_S4_
FN:171,_ZSt8_DestroyIP7QStringEvT_S2_
FNDA:0,_ZSt8_DestroyIP7QStringEvT_S2_
FN:240,_ZSt7destroyIP5QListI7QStringEEvT_S4_
FNDA:0,_ZSt7destroyIP5QListI7QStringEEvT_S4_
FN:240,_ZSt7destroyIP7QStringEvT_S2_
FNDA:0,_ZSt7destroyIP7QStringEvT_S2_
DA:135,0
DA:140,0
DA:142,0
DA:135,0
DA:140,0
DA:142,0
DA:149,0
DA:151,0
DA:152,0
DA:153,0
DA:149,0
DA:151,0
DA:152,0
DA:153,0
DA:171,0
DA:185,0
DA:186,0
DA:171,0
DA:185,0
DA:186,0
DA:240,0
DA:242,0
DA:243,0
DA:240,0
DA:242,0
DA:243,0
end_of_record
SF:C:
Users
USER
Documents
UFMG
6
teste
testes_tp
build/C:/Qt/Tools/mingw1120_64/lib/gcc/x86_64-w64-mingw32/11.2.0/include/c++/bits/move.h
FN:49,_ZSt11__addressofI5QListI7QStringEEPT_RS3_
FNDA:0,_ZSt11__addressofI5QListI7QStringEEPT_RS3_
FN:49,_ZSt11__addressofI7QStringEPT_RS1_
FNDA:0,_ZSt11__addressofI7QStringEPT_RS1_
FN:77,_ZSt7forwardIRK7QStringEOT_RNSt16remove_referenceIS3_E4typeE
FNDA:0,_ZSt7forwardIRK7QStringEOT_RNSt16remove_referenceIS3_E4typeE
FN:77,_ZSt7forwardIRK5QListI7QStringEEOT_RNSt16remove_referenceIS5_E4typeE
FNDA:22,_ZSt7forwardIRK5QListI7QStringEEOT_RNSt16remove_referenceIS5_E4typeE
FN:77,_ZSt7forwardIP5QListI7QStringEEOT_RNSt16remove_referenceIS4_E4typeE
FNDA:131,_ZSt7forwardIP5QListI7QStringEEOT_RNSt16remove_referenceIS4_E4typeE
FN:77,_ZSt7forwardIP15QTypedArrayDataI5QListI7QStringEEEOT_RNSt16remove_referenceIS6_E4typeE
FNDA:131,_ZSt7forwardIP15QTypedArrayDataI5QListI7QStringEEEOT_RNSt16remove_referenceIS6_E4typeE
FN:77,_ZSt7forwardIP7QStringEOT_RNSt16remove_referenceIS2_E4typeE
FNDA:0,_ZSt7forwardIP7QStringEOT_RNSt16remove_referenceIS2_E4typeE
FN:77,_ZSt7forwardIP15QTypedArrayDataI7QStringEEOT_RNSt16remove_referenceIS4_E4typeE
FNDA:0,_ZSt7forwardIP15QTypedArrayDataI7QStringEEOT_RNSt16remove_referenceIS4_E4typeE
FN:104,_ZSt4moveIRSt4pairIP15QTypedArrayDataI7QStringEPS2_EEONSt16remove_referenceIT_E4typeEOS9_
FNDA:22,_ZSt4moveIRSt4pairIP15QTypedArrayDataI7QStringEPS2_EEONSt16remove_referenceIT_E4typeEOS9_
FN:104,_ZSt4moveIRSt4pairIP15QTypedArrayDataI5QListI7QStringEEPS4_EEONSt16remove_referenceIT_E4typeEOSB_
FNDA:4,_ZSt4moveIRSt4pairIP15QTypedArrayDataI5QListI7QStringEEPS4_EEONSt16remove_referenceIT_E4typeEOSB_
FN:104,_ZSt4moveIR5QListI7QStringEEONSt16remove_referenceIT_E4typeEOS5_
FNDA:8,_ZSt4moveIR5QListI7QStringEEONSt16remove_referenceIT_E4typeEOS5_
FN:104,_ZSt4moveIR17QArrayDataPointerI5QListI7QStringEEEONSt16remove_referenceIT_E4typeEOS7_
FNDA:29,_ZSt4moveIR17QArrayDataPointerI5QListI7QStringEEEONSt16remove_referenceIT_E4typeEOS7_
FN:104,_ZSt4moveIRxEONSt16remove_referenceIT_E4typeEOS2_
FNDA:0,_ZSt4moveIRxEONSt16remove_referenceIT_E4typeEOS2_
FN:104,_ZSt4moveIR7QStringEONSt16remove_referenceIT_E4typeEOS3_
FNDA:0,_ZSt4moveIR7QStringEONSt16remove_referenceIT_E4typeEOS3_
FN:196,_ZSt4swapIxENSt9enable_ifIXsrSt6__and_IJSt6__not_ISt15__is_tuple_likeIT_EESt21is_move_constructibleIS4_ESt18is_move_assignableIS4_EEE5valueEvE4typeERS4_SE_
FNDA:0,_ZSt4swapIxENSt9enable_ifIXsrSt6__and_IJSt6__not_ISt15__is_tuple_likeIT_EESt21is_move_constructibleIS4_ESt18is_move_assignableIS4_EEE5valueEvE4typeERS4_SE_
DA:49,0
DA:50,0
DA:49,0
DA:50,0
DA:77,0
DA:78,0
DA:77,22
DA:78,22
DA:77,131
DA:78,131
DA:77,131
DA:78,131
DA:77,0
DA:78,0
DA:77,0
DA:78,0
DA:104,22
DA:105,22
DA:104,4
DA:105,4
DA:104,8
DA:105,8
DA:104,29
DA:105,29
DA:104,0
DA:105,0
DA:104,0
DA:105,0
DA:196,0
DA:204,0
DA:205,0
DA:206,0
DA:207,0
end_of_record
SF:C:
Users
USER
Documents
UFMG
6
teste
testes_tp
build/C:/Qt/6.6.0/mingw_64/include/QtCore/qcontainertools_impl.h
FN:36,_ZN9QtPrivateL19q_points_into_rangeI7QStringSt4lessIvEEEbPKT_S6_S6_T0_
FNDA:0,_ZN9QtPrivateL19q_points_into_rangeI7QStringSt4lessIvEEEbPKT_S6_S6_T0_
FN:36,_ZN9QtPrivateL19q_points_into_rangeI5QListI7QStringESt4lessIvEEEbPKT_S8_S8_T0_
FNDA:0,_ZN9QtPrivateL19q_points_into_rangeI5QListI7QStringESt4lessIvEEEbPKT_S8_S8_T0_
FN:49,_ZN9QtPrivateL19q_points_into_rangeI17QArrayDataPointerI7QStringEPKS2_EEbRKT0_RKT_
FNDA:0,_ZN9QtPrivateL19q_points_into_rangeI17QArrayDataPointerI7QStringEPKS2_EEbRKT0_RKT_
FN:49,_ZN9QtPrivateL19q_points_into_rangeI17QArrayDataPointerI5QListI7QStringEEPKS4_EEbRKT0_RKT_
FNDA:0,_ZN9QtPrivateL19q_points_into_rangeI17QArrayDataPointerI5QListI7QStringEEPKS4_EEbRKT0_RKT_
FN:234,_ZN9QtPrivate20q_relocate_overlap_nI7QStringxEEvPT_T0_S3_
FNDA:0,_ZN9QtPrivate20q_relocate_overlap_nI7QStringxEEvPT_T0_S3_
FN:234,_ZN9QtPrivate20q_relocate_overlap_nI5QListI7QStringExEEvPT_T0_S5_
FNDA:0,_ZN9QtPrivate20q_relocate_overlap_nI5QListI7QStringExEEvPT_T0_S5_
DA:36,0
DA:39,0
DA:36,0
DA:39,0
DA:49,0
DA:55,0
DA:56,0
DA:49,0
DA:55,0
DA:56,0
DA:234,0
DA:239,0
DA:240,0
DA:243,0
DA:234,0
DA:239,0
DA:240,0
DA:243,0
end_of_record
SF:C:
Users
USER
Documents
UFMG
6
teste
testes_tp
build/C:/Qt/6.6.0/mingw_64/include/QtCore/qstringview.h
FN:137,_ZN11QStringView10castHelperI5QCharEEPKDsPKT_
FNDA:0,_ZN11QStringView10castHelperI5QCharEEPKDsPKT_
FN:148,_ZN11QStringViewC1I5QCharLb1EEEPKT_x
FNDA:0,_ZN11QStringViewC1I5QCharLb1EEEPKT_x
FN:179,_ZN11QStringViewC1I7QStringLb1EEERKT_
FNDA:0,_ZN11QStringViewC1I7QStringLb1EEERKT_
DA:137,0
DA:138,0
DA:148,0
DA:153,0
DA:154,0
DA:156,0
DA:179,0
DA:180,0
end_of_record
SF:C:
Users
USER
Documents
UFMG
6
teste
testes_tp
build/C:/Qt/6.6.0/mingw_64/include/QtCore/qarraydatapointer.h
FN:31,_ZN17QArrayDataPointerI5QListI7QStringEEC1Ev
FNDA:29,_ZN17QArrayDataPointerI5QListI7QStringEEC1Ev
FN:37,_ZN17QArrayDataPointerI7QStringEC1ERKS1_
FNDA:0,_ZN17QArrayDataPointerI7QStringEC1ERKS1_
FN:37,_ZN17QArrayDataPointerIDsEC1ERKS0_
FNDA:0,_ZN17QArrayDataPointerIDsEC1ERKS0_
FN:44,_ZN17QArrayDataPointerI5QListI7QStringEEC1EP15QTypedArrayDataIS2_EPS2_x
FNDA:2,_ZN17QArrayDataPointerI5QListI7QStringEEC1EP15QTypedArrayDataIS2_EPS2_x
FN:44,_ZN17QArrayDataPointerI7QStringEC1EP15QTypedArrayDataIS0_EPS0_x
FNDA:11,_ZN17QArrayDataPointerI7QStringEC1EP15QTypedArrayDataIS0_EPS0_x
FN:50,_ZN17QArrayDataPointerI7QStringEC1ESt4pairIP15QTypedArrayDataIS0_EPS0_Ex
FNDA:0,_ZN17QArrayDataPointerI7QStringEC1ESt4pairIP15QTypedArrayDataIS0_EPS0_Ex
FN:50,_ZN17QArrayDataPointerI5QListI7QStringEEC1ESt4pairIP15QTypedArrayDataIS2_EPS2_Ex
FNDA:39,_ZN17QArrayDataPointerI5QListI7QStringEEC1ESt4pairIP15QTypedArrayDataIS2_EPS2_Ex
FN:70,_ZN17QArrayDataPointerIDsEC1EOS0_
FNDA:0,_ZN17QArrayDataPointerIDsEC1EOS0_
FN:70,_ZN17QArrayDataPointerI5QListI7QStringEEC1EOS3_
FNDA:29,_ZN17QArrayDataPointerI5QListI7QStringEEC1EOS3_
FN:70,_ZN17QArrayDataPointerI7QStringEC1EOS1_
FNDA:4,_ZN17QArrayDataPointerI7QStringEC1EOS1_
FN:78,_ZN17QArrayDataPointerI5QListI7QStringEEaSEOS3_
FNDA:29,_ZN17QArrayDataPointerI5QListI7QStringEEaSEOS3_
FN:85,_ZN17QArrayDataPointerI7QStringEptEv
FNDA:0,_ZN17QArrayDataPointerI7QStringEptEv
FN:85,_ZN17QArrayDataPointerI5QListI7QStringEEptEv
FNDA:0,_ZN17QArrayDataPointerI5QListI7QStringEEptEv
FN:85,_ZN17QArrayDataPointerIDsEptEv
FNDA:0,_ZN17QArrayDataPointerIDsEptEv
FN:95,_ZNK17QArrayDataPointerIDsEptEv
FNDA:0,_ZNK17QArrayDataPointerIDsEptEv
FN:95,_ZNK17QArrayDataPointerI5QListI7QStringEEptEv
FNDA:103,_ZNK17QArrayDataPointerI5QListI7QStringEEptEv
FN:95,_ZNK17QArrayDataPointerI7QStringEptEv
FNDA:0,_ZNK17QArrayDataPointerI7QStringEptEv
FN:100,_ZN17QArrayDataPointerI5QListI7QStringEED1Ev
FNDA:0,_ZN17QArrayDataPointerI5QListI7QStringEED1Ev
FN:100,_ZN17QArrayDataPointerI7QStringED1Ev
FNDA:0,_ZN17QArrayDataPointerI7QStringED1Ev
FN:100,_ZN17QArrayDataPointerIDsED1Ev
FNDA:0,_ZN17QArrayDataPointerIDsED1Ev
FN:108,_ZNK17QArrayDataPointerIDsE6isNullEv
FNDA:0,_ZNK17QArrayDataPointerIDsE6isNullEv
FN:113,_ZN17QArrayDataPointerI5QListI7QStringEE4dataEv
FNDA:0,_ZN17QArrayDataPointerI5QListI7QStringEE4dataEv
FN:113,_ZN17QArrayDataPointerI7QStringE4dataEv
FNDA:0,_ZN17QArrayDataPointerI7QStringE4dataEv
FN:114,_ZNK17QArrayDataPointerIDsE4dataEv
FNDA:0,_ZNK17QArrayDataPointerIDsE4dataEv
FN:114,_ZNK17QArrayDataPointerI7QStringE4dataEv
FNDA:0,_ZNK17QArrayDataPointerI7QStringE4dataEv
FN:114,_ZNK17QArrayDataPointerI5QListI7QStringEE4dataEv
FNDA:38,_ZNK17QArrayDataPointerI5QListI7QStringEE4dataEv
FN:116,_ZN17QArrayDataPointerI5QListI7QStringEE5beginEv
FNDA:0,_ZN17QArrayDataPointerI5QListI7QStringEE5beginEv
FN:116,_ZN17QArrayDataPointerI7QStringE5beginEv
FNDA:0,_ZN17QArrayDataPointerI7QStringE5beginEv
FN:117,_ZN17QArrayDataPointerI5QListI7QStringEE3endEv
FNDA:0,_ZN17QArrayDataPointerI5QListI7QStringEE3endEv
FN:117,_ZN17QArrayDataPointerI7QStringE3endEv
FNDA:0,_ZN17QArrayDataPointerI7QStringE3endEv
FN:118,_ZNK17QArrayDataPointerI5QListI7QStringEE5beginEv
FNDA:0,_ZNK17QArrayDataPointerI5QListI7QStringEE5beginEv
FN:118,_ZNK17QArrayDataPointerI7QStringE5beginEv
FNDA:0,_ZNK17QArrayDataPointerI7QStringE5beginEv
FN:119,_ZNK17QArrayDataPointerI5QListI7QStringEE3endEv
FNDA:0,_ZNK17QArrayDataPointerI5QListI7QStringEE3endEv
FN:119,_ZNK17QArrayDataPointerI7QStringE3endEv
FNDA:0,_ZNK17QArrayDataPointerI7QStringE3endEv
FN:120,_ZNK17QArrayDataPointerI5QListI7QStringEE10constBeginEv
FNDA:19,_ZNK17QArrayDataPointerI5QListI7QStringEE10constBeginEv
FN:121,_ZNK17QArrayDataPointerI5QListI7QStringEE8constEndEv
FNDA:19,_ZNK17QArrayDataPointerI5QListI7QStringEE8constEndEv
FN:123,_ZN17QArrayDataPointerI7QStringE4swapERS1_
FNDA:11,_ZN17QArrayDataPointerI7QStringE4swapERS1_
FN:123,_ZN17QArrayDataPointerI5QListI7QStringEE4swapERS3_
FNDA:31,_ZN17QArrayDataPointerI5QListI7QStringEE4swapERS3_
FN:136,_ZN17QArrayDataPointerI5QListI7QStringEE6detachEPS3_
FNDA:492,_ZN17QArrayDataPointerI5QListI7QStringEE6detachEPS3_
FN:136,_ZN17QArrayDataPointerI7QStringE6detachEPS1_
FNDA:315,_ZN17QArrayDataPointerI7QStringE6detachEPS1_
FN:187,_ZN17QArrayDataPointerI7QStringE13detachAndGrowEN10QArrayData14GrowthPositionExPPKS0_PS1_
FNDA:33,_ZN17QArrayDataPointerI7QStringE13detachAndGrowEN10QArrayData14GrowthPositionExPPKS0_PS1_
FN:187,_ZN17QArrayDataPointerI5QListI7QStringEE13detachAndGrowEN10QArrayData14GrowthPositionExPPKS2_PS3_
FNDA:4,_ZN17QArrayDataPointerI5QListI7QStringEE13detachAndGrowEN10QArrayData14GrowthPositionExPPKS2_PS3_
FN:212,_ZN17QArrayDataPointerI5QListI7QStringEE17reallocateAndGrowEN10QArrayData14GrowthPositionExPS3_
FNDA:4,_ZN17QArrayDataPointerI5QListI7QStringEE17reallocateAndGrowEN10QArrayData14GrowthPositionExPS3_
FN:212,_ZN17QArrayDataPointerI7QStringE17reallocateAndGrowEN10QArrayData14GrowthPositionExPS1_
FNDA:33,_ZN17QArrayDataPointerI7QStringE17reallocateAndGrowEN10QArrayData14GrowthPositionExPS1_
FN:263,_ZN17QArrayDataPointerI5QListI7QStringEE20tryReadjustFreeSpaceEN10QArrayData14GrowthPositionExPPKS2_
FNDA:2,_ZN17QArrayDataPointerI5QListI7QStringEE20tryReadjustFreeSpaceEN10QArrayData14GrowthPositionExPPKS2_
FN:263,_ZN17QArrayDataPointerI7QStringE20tryReadjustFreeSpaceEN10QArrayData14GrowthPositionExPPKS0_
FNDA:22,_ZN17QArrayDataPointerI7QStringE20tryReadjustFreeSpaceEN10QArrayData14GrowthPositionExPPKS0_
FN:307,_ZN17QArrayDataPointerI5QListI7QStringEE8relocateExPPKS2_
FNDA:0,_ZN17QArrayDataPointerI5QListI7QStringEE8relocateExPPKS2_
FN:307,_ZN17QArrayDataPointerI7QStringE8relocateExPPKS0_
FNDA:0,_ZN17QArrayDataPointerI7QStringE8relocateExPPKS0_
FN:411,_ZNK17QArrayDataPointerI7QStringE22constAllocatedCapacityEv
FNDA:66,_ZNK17QArrayDataPointerI7QStringE22constAllocatedCapacityEv
FN:411,_ZNK17QArrayDataPointerI5QListI7QStringEE22constAllocatedCapacityEv
FNDA:8,_ZNK17QArrayDataPointerI5QListI7QStringEE22constAllocatedCapacityEv
FN:412,_ZN17QArrayDataPointerIDsE3refEv
FNDA:0,_ZN17QArrayDataPointerIDsE3refEv
FN:412,_ZN17QArrayDataPointerI7QStringE3refEv
FNDA:0,_ZN17QArrayDataPointerI7QStringE3refEv
FN:413,_ZN17QArrayDataPointerI7QStringE5derefEv
FNDA:0,_ZN17QArrayDataPointerI7QStringE5derefEv
FN:413,_ZN17QArrayDataPointerIDsE5derefEv
FNDA:0,_ZN17QArrayDataPointerIDsE5derefEv
FN:413,_ZN17QArrayDataPointerI5QListI7QStringEE5derefEv
FNDA:0,_ZN17QArrayDataPointerI5QListI7QStringEE5derefEv
FN:414,_ZNK17QArrayDataPointerI7QStringE9isMutableEv
FNDA:0,_ZNK17QArrayDataPointerI7QStringE9isMutableEv
FN:414,_ZNK17QArrayDataPointerI5QListI7QStringEE9isMutableEv
FNDA:39,_ZNK17QArrayDataPointerI5QListI7QStringEE9isMutableEv
FN:415,_ZNK17QArrayDataPointerI5QListI7QStringEE8isSharedEv
FNDA:39,_ZNK17QArrayDataPointerI5QListI7QStringEE8isSharedEv
FN:415,_ZNK17QArrayDataPointerI7QStringE8isSharedEv
FNDA:0,_ZNK17QArrayDataPointerI7QStringE8isSharedEv
FN:417,_ZNK17QArrayDataPointerI5QListI7QStringEE11needsDetachEv
FNDA:513,_ZNK17QArrayDataPointerI5QListI7QStringEE11needsDetachEv
FN:417,_ZNK17QArrayDataPointerI7QStringE11needsDetachEv
FNDA:458,_ZNK17QArrayDataPointerI7QStringE11needsDetachEv
FN:418,_ZNK17QArrayDataPointerI5QListI7QStringEE14detachCapacityEx
FNDA:2,_ZNK17QArrayDataPointerI5QListI7QStringEE14detachCapacityEx
FN:418,_ZNK17QArrayDataPointerI7QStringE14detachCapacityEx
FNDA:11,_ZNK17QArrayDataPointerI7QStringE14detachCapacityEx
FN:419,_ZNK17QArrayDataPointerI7QStringE5flagsEv
FNDA:11,_ZNK17QArrayDataPointerI7QStringE5flagsEv
FN:419,_ZNK17QArrayDataPointerI5QListI7QStringEE5flagsEv
FNDA:2,_ZNK17QArrayDataPointerI5QListI7QStringEE5flagsEv
FN:426,_ZNK17QArrayDataPointerI7QStringE16freeSpaceAtBeginEv
FNDA:0,_ZNK17QArrayDataPointerI7QStringE16freeSpaceAtBeginEv
FN:426,_ZNK17QArrayDataPointerI5QListI7QStringEE16freeSpaceAtBeginEv
FNDA:62,_ZNK17QArrayDataPointerI5QListI7QStringEE16freeSpaceAtBeginEv
FN:433,_ZNK17QArrayDataPointerI7QStringE14freeSpaceAtEndEv
FNDA:0,_ZNK17QArrayDataPointerI7QStringE14freeSpaceAtEndEv
FN:433,_ZNK17QArrayDataPointerI5QListI7QStringEE14freeSpaceAtEndEv
FNDA:60,_ZNK17QArrayDataPointerI5QListI7QStringEE14freeSpaceAtEndEv
FN:441,_ZN17QArrayDataPointerI5QListI7QStringEE12allocateGrowERKS3_xN10QArrayData14GrowthPositionE
FNDA:2,_ZN17QArrayDataPointerI5QListI7QStringEE12allocateGrowERKS3_xN10QArrayData14GrowthPositionE
FN:441,_ZN17QArrayDataPointerI7QStringE12allocateGrowERKS1_xN10QArrayData14GrowthPositionE
FNDA:11,_ZN17QArrayDataPointerI7QStringE12allocateGrowERKS1_xN10QArrayData14GrowthPositionE
DA:31,29
DA:32,29
DA:34,29
DA:37,0
DA:38,0
DA:40,0
DA:41,0
DA:37,0
DA:38,0
DA:40,0
DA:41,0
DA:44,11
DA:45,11
DA:47,11
DA:44,2
DA:45,2
DA:47,2
DA:50,39
DA:51,39
DA:53,39
DA:50,0
DA:51,0
DA:53,0
DA:70,4
DA:71,4
DA:73,4
DA:74,4
DA:75,4
DA:76,4
DA:70,29
DA:71,29
DA:73,29
DA:74,29
DA:75,29
DA:76,29
DA:70,0
DA:71,0
DA:73,0
DA:74,0
DA:75,0
DA:76,0
DA:78,29
DA:85,0
DA:87,0
DA:85,0
DA:87,0
DA:85,0
DA:87,0
DA:95,0
DA:97,0
DA:95,103
DA:97,103
DA:95,0
DA:97,0
DA:100,0
DA:102,0
DA:103,0
DA:104,0
DA:106,0
DA:100,0
DA:102,0
DA:103,0
DA:104,0
DA:106,0
DA:100,0
DA:102,0
DA:103,0
DA:104,0
DA:106,0
DA:108,0
DA:110,0
DA:113,0
DA:113,0
DA:114,0
DA:114,38
DA:114,0
DA:116,0
DA:116,0
DA:117,0
DA:117,0
DA:118,0
DA:118,0
DA:119,0
DA:119,0
DA:120,19
DA:121,19
DA:123,11
DA:125,11
DA:126,11
DA:127,11
DA:128,11
DA:123,31
DA:125,31
DA:126,31
DA:127,31
DA:128,31
DA:136,315
DA:138,315
DA:139,0
DA:140,315
DA:136,492
DA:138,492
DA:139,0
DA:140,492
DA:187,33
DA:190,33
DA:191,33
DA:192,33
DA:193,22
DA:194,44
DA:195,0
DA:196,22
DA:197,22
DA:202,33
DA:203,33
DA:187,4
DA:190,4
DA:191,4
DA:192,4
DA:193,2
DA:194,4
DA:195,0
DA:196,2
DA:197,2
DA:202,4
DA:203,4
DA:212,33
DA:216,33
DA:217,22
DA:218,22
DA:222,11
DA:223,11
DA:224,11
DA:225,11
DA:226,0
DA:228,11
DA:230,11
DA:231,0
DA:232,0
DA:233,0
DA:234,0
DA:235,0
DA:237,0
DA:238,0
DA:241,11
DA:242,11
DA:243,0
DA:244,11
DA:212,4
DA:216,4
DA:217,2
DA:218,2
DA:222,2
DA:223,2
DA:224,2
DA:225,2
DA:226,0
DA:228,2
DA:230,2
DA:231,0
DA:232,0
DA:233,0
DA:234,0
DA:235,0
DA:237,0
DA:238,0
DA:241,2
DA:242,2
DA:243,0
DA:244,2
DA:263,22
DA:265,22
DA:266,22
DA:267,22
DA:270,22
DA:271,22
DA:272,22
DA:274,22
DA:283,22
DA:284,0
DA:286,22
DA:287,0
DA:289,0
DA:292,22
DA:295,0
DA:297,0
DA:299,0
DA:263,2
DA:265,2
DA:266,2
DA:267,2
DA:270,2
DA:271,2
DA:272,2
DA:274,2
DA:283,2
DA:284,0
DA:286,2
DA:287,0
DA:289,0
DA:292,2
DA:295,0
DA:297,0
DA:299,0
DA:307,0
DA:309,0
DA:310,0
DA:312,0
DA:313,0
DA:314,0
DA:315,0
DA:307,0
DA:309,0
DA:310,0
DA:312,0
DA:313,0
DA:314,0
DA:315,0
DA:411,66
DA:411,8
DA:412,0
DA:412,0
DA:413,0
DA:413,0
DA:413,0
DA:414,39
DA:414,0
DA:415,39
DA:415,0
DA:417,458
DA:417,513
DA:418,11
DA:418,2
DA:419,11
DA:419,2
DA:426,62
DA:428,62
DA:429,2
DA:430,60
DA:426,0
DA:428,0
DA:429,0
DA:430,0
DA:433,60
DA:435,60
DA:436,2
DA:437,58
DA:433,0
DA:435,0
DA:436,0
DA:437,0
DA:441,11
DA:447,11
DA:450,11
DA:451,11
DA:452,11
DA:453,11
DA:454,11
DA:455,11
DA:456,0
DA:460,11
DA:461,11
DA:462,11
DA:463,11
DA:464,11
DA:441,2
DA:447,2
DA:450,2
DA:451,2
DA:452,2
DA:453,2
DA:454,2
DA:455,2
DA:456,0
DA:460,2
DA:461,2
DA:462,2
DA:463,2
DA:464,2
end_of_record
SF:C:
Users
USER
Documents
UFMG
6
teste
testes_tp
build/C:/Qt/6.6.0/mingw_64/include/QtCore/qswap.h
FN:43,_Z11qt_ptr_swapI7QStringEvRPT_S3_
FNDA:11,_Z11qt_ptr_swapI7QStringEvRPT_S3_
FN:43,_Z11qt_ptr_swapI15QTypedArrayDataI7QStringEEvRPT_S5_
FNDA:11,_Z11qt_ptr_swapI15QTypedArrayDataI7QStringEEvRPT_S5_
FN:43,_Z11qt_ptr_swapI5QListI7QStringEEvRPT_S5_
FNDA:31,_Z11qt_ptr_swapI5QListI7QStringEEvRPT_S5_
FN:43,_Z11qt_ptr_swapI15QTypedArrayDataI5QListI7QStringEEEvRPT_S7_
FNDA:31,_Z11qt_ptr_swapI15QTypedArrayDataI5QListI7QStringEEEvRPT_S7_
DA:43,11
DA:45,11
DA:46,11
DA:47,11
DA:48,11
DA:43,11
DA:45,11
DA:46,11
DA:47,11
DA:48,11
DA:43,31
DA:45,31
DA:46,31
DA:47,31
DA:48,31
DA:43,31
DA:45,31
DA:46,31
DA:47,31
DA:48,31
end_of_record
SF:C:
Users
USER
Documents
UFMG
6
teste
testes_tp
build/C:/Qt/6.6.0/mingw_64/include/QtCore/qlist.h
FN:130,_ZN5QListIS_I7QStringEE8iteratorC1EPS1_
FNDA:52,_ZN5QListIS_I7QStringEE8iteratorC1EPS1_
FN:130,_ZN5QListI7QStringE8iteratorC1EPS0_
FNDA:110,_ZN5QListI7QStringE8iteratorC1EPS0_
FN:132,_ZNK5QListIS_I7QStringEE8iteratordeEv
FNDA:34,_ZNK5QListIS_I7QStringEE8iteratordeEv
FN:132,_ZNK5QListI7QStringE8iteratordeEv
FNDA:55,_ZNK5QListI7QStringE8iteratordeEv
FN:136,_ZNK5QListIS_I7QStringEE8iteratorneES3_
FNDA:23,_ZNK5QListIS_I7QStringEE8iteratorneES3_
FN:149,_ZN5QListIS_I7QStringEE8iteratorppEv
FNDA:8,_ZN5QListIS_I7QStringEE8iteratorppEv
FN:165,_ZNK5QListIS_I7QStringEE8iteratorplIxEENSt9enable_ifIX13is_integral_vIT_EES3_E4typeES6_
FNDA:0,_ZNK5QListIS_I7QStringEE8iteratorplIxEENSt9enable_ifIX13is_integral_vIT_EES3_E4typeES6_
FN:167,_ZNK5QListI7QStringE8iteratormiIiEENSt9enable_ifIX13is_integral_vIT_EES2_E4typeES5_
FNDA:55,_ZNK5QListI7QStringE8iteratormiIiEENSt9enable_ifIX13is_integral_vIT_EES2_E4typeES5_
FN:167,_ZNK5QListIS_I7QStringEE8iteratormiIiEENSt9enable_ifIX13is_integral_vIT_EES3_E4typeES6_
FNDA:11,_ZNK5QListIS_I7QStringEE8iteratormiIiEENSt9enable_ifIX13is_integral_vIT_EES3_E4typeES6_
FN:201,_ZN5QListIS_I7QStringEE14const_iteratorC1EPKS1_
FNDA:38,_ZN5QListIS_I7QStringEE14const_iteratorC1EPKS1_
FN:203,_ZN5QListIS_I7QStringEE14const_iteratorC1ENS2_8iteratorE
FNDA:0,_ZN5QListIS_I7QStringEE14const_iteratorC1ENS2_8iteratorE
FN:204,_ZNK5QListIS_I7QStringEE14const_iteratordeEv
FNDA:27,_ZNK5QListIS_I7QStringEE14const_iteratordeEv
FN:208,_ZNK5QListIS_I7QStringEE14const_iteratorneES3_
FNDA:27,_ZNK5QListIS_I7QStringEE14const_iteratorneES3_
FN:212,_ZNK5QListIS_I7QStringEE14const_iteratorgeES3_
FNDA:0,_ZNK5QListIS_I7QStringEE14const_iteratorgeES3_
FN:221,_ZN5QListIS_I7QStringEE14const_iteratorppEv
FNDA:8,_ZN5QListIS_I7QStringEE14const_iteratorppEv
FN:225,_ZNK5QListIS_I7QStringEE14const_iteratormiES3_
FNDA:0,_ZNK5QListIS_I7QStringEE14const_iteratormiES3_
FN:237,_ZNK5QListIS_I7QStringEE14const_iteratorplIiEENSt9enable_ifIX13is_integral_vIT_EES3_E4typeES6_
FNDA:0,_ZNK5QListIS_I7QStringEE14const_iteratorplIiEENSt9enable_ifIX13is_integral_vIT_EES3_E4typeES6_
FN:257,_ZNK5QListIS_I7QStringEE15isValidIteratorENS2_14const_iteratorE
FNDA:0,_ZNK5QListIS_I7QStringEE15isValidIteratorENS2_14const_iteratorE
FN:269,_ZN5QListIS_I7QStringEEC1Ev
FNDA:29,_ZN5QListIS_I7QStringEEC1Ev
FN:283,_ZN5QListI7QStringEC1ESt16initializer_listIS0_E
FNDA:0,_ZN5QListI7QStringEC1ESt16initializer_listIS0_E
FN:283,_ZN5QListIS_I7QStringEEC1ESt16initializer_listIS1_E
FNDA:10,_ZN5QListIS_I7QStringEEC1ESt16initializer_listIS1_E
FN:290,_ZN5QListIS_I7QStringEEaSESt16initializer_listIS1_E
FNDA:29,_ZN5QListIS_I7QStringEEaSESt16initializer_listIS1_E
FN:409,_ZN5QListIS_I7QStringEE6detachEv
FNDA:492,_ZN5QListIS_I7QStringEE6detachEv
FN:409,_ZN5QListI7QStringE6detachEv
FNDA:315,_ZN5QListI7QStringE6detachEv
FN:414,_ZN5QListI7QStringE4dataEv
FNDA:260,_ZN5QListI7QStringE4dataEv
FN:415,_ZNK5QListI7QStringE4dataEv
FNDA:0,_ZNK5QListI7QStringE4dataEv
FN:429,_ZNK5QListI7QStringE2atEx
FNDA:0,_ZNK5QListI7QStringE2atEx
FN:434,_ZN5QListI7QStringEixEx
FNDA:260,_ZN5QListI7QStringEixEx
FN:440,_ZNK5QListI7QStringEixEx
FNDA:0,_ZNK5QListI7QStringEixEx
FN:441,_ZN5QListIS_I7QStringEE6appendERKS1_
FNDA:11,_ZN5QListIS_I7QStringEE6appendERKS1_
FN:441,_ZN5QListI7QStringE6appendERKS0_
FNDA:0,_ZN5QListI7QStringE6appendERKS0_
FN:608,_ZN5QListIS_I7QStringEE5beginEv
FNDA:15,_ZN5QListIS_I7QStringEE5beginEv
FN:609,_ZN5QListIS_I7QStringEE3endEv
FNDA:26,_ZN5QListIS_I7QStringEE3endEv
FN:609,_ZN5QListI7QStringE3endEv
FNDA:55,_ZN5QListI7QStringE3endEv
FN:611,_ZNK5QListIS_I7QStringEE5beginEv
FNDA:19,_ZNK5QListIS_I7QStringEE5beginEv
FN:612,_ZNK5QListIS_I7QStringEE3endEv
FNDA:19,_ZNK5QListIS_I7QStringEE3endEv
FN:615,_ZNK5QListIS_I7QStringEE10constBeginEv
FNDA:0,_ZNK5QListIS_I7QStringEE10constBeginEv
FN:625,_ZN5QListIS_I7QStringEE5eraseENS2_14const_iteratorE
FNDA:0,_ZN5QListIS_I7QStringEE5eraseENS2_14const_iteratorE
FN:703,_ZN5QListI7QStringElsERKS0_
FNDA:0,_ZN5QListI7QStringElsERKS0_
FN:787,_ZN5QListIS_I7QStringEE6removeExx
FNDA:0,_ZN5QListIS_I7QStringEE6removeExx
FN:875,_ZN5QListI7QStringE11emplaceBackIJRKS0_EEERS0_DpOT_
FNDA:0,_ZN5QListI7QStringE11emplaceBackIJRKS0_EEERS0_DpOT_
FN:875,_ZN5QListIS_I7QStringEE11emplaceBackIJRKS1_EEERS1_DpOT_
FNDA:11,_ZN5QListIS_I7QStringEE11emplaceBackIJRKS1_EEERS1_DpOT_
FN:882,_ZN5QListIS_I7QStringEE5eraseENS2_14const_iteratorES3_
FNDA:0,_ZN5QListIS_I7QStringEE5eraseENS2_14const_iteratorES3_
DA:130,110
DA:130,52
DA:132,55
DA:132,34
DA:136,23
DA:149,8
DA:165,0
DA:167,55
DA:167,11
DA:201,38
DA:203,0
DA:204,27
DA:208,27
DA:212,0
DA:221,8
DA:225,0
DA:237,0
DA:257,0
DA:260,0
DA:269,29
DA:283,10
DA:284,10
DA:286,10
DA:287,10
DA:288,10
DA:283,0
DA:284,0
DA:286,0
DA:287,0
DA:288,0
DA:290,29
DA:292,29
DA:293,29
DA:294,29
DA:295,29
DA:409,315
DA:409,492
DA:414,260
DA:415,0
DA:429,0
DA:431,0
DA:432,0
DA:434,260
DA:436,260
DA:438,260
DA:440,0
DA:441,0
DA:441,11
DA:608,15
DA:609,55
DA:609,26
DA:611,19
DA:612,19
DA:615,0
DA:625,0
DA:703,0
DA:704,0
DA:787,0
DA:789,0
DA:790,0
DA:792,0
DA:793,0
DA:795,0
DA:796,0
DA:875,0
DA:877,0
DA:878,0
DA:875,11
DA:877,11
DA:878,11
DA:882,0
DA:884,0
DA:885,0
DA:886,0
DA:888,0
DA:889,0
DA:890,0
DA:892,0
end_of_record
SF:C:
Users
USER
Documents
UFMG
6
teste
testes_tp
build/C:/Qt/6.6.0/mingw_64/include/QtCore/qminmax.h
FN:42,_Z4qMaxIxERKT_S2_S2_
FNDA:13,_Z4qMaxIxERKT_S2_S2_
FN:58,_Z4qMaxIixEN11QTypeTraits6detail8PromotedIT_T0_NSt9enable_ifIXaaaaaaaaaaaaaa15is_arithmetic_vIS3_E15is_arithmetic_vIS4_Eeq19is_floating_point_vIS3_E19is_floating_point_vIS4_Eeq11is_signed_vIS3_E11is_signed_vIS4_Ent9is_same_vIS3_bEnt9is_same_vIS4_bEnt9is_same_vIS3_cEnt9is_same_vIS4_cEEvE4typeEE4typeERKS3_RKS4_
FNDA:0,_Z4qMaxIixEN11QTypeTraits6detail8PromotedIT_T0_NSt9enable_ifIXaaaaaaaaaaaaaa15is_arithmetic_vIS3_E15is_arithmetic_vIS4_Eeq19is_floating_point_vIS3_E19is_floating_point_vIS4_Eeq11is_signed_vIS3_E11is_signed_vIS4_Ent9is_same_vIS3_bEnt9is_same_vIS4_bEnt9is_same_vIS3_cEnt9is_same_vIS4_cEEvE4typeEE4typeERKS3_RKS4_
DA:42,13
DA:58,0
DA:61,0
DA:62,0
DA:63,0
end_of_record
SF:C:
Users
USER
Documents
UFMG
6
teste
testes_tp
build/C:/Qt/Tools/mingw1120_64/lib/gcc/x86_64-w64-mingw32/11.2.0/include/c++/utility
FN:183,_ZNSt10__pair_getILy0EE10__move_getIP15QTypedArrayDataI7QStringEPS3_EEOT_OSt4pairIS7_T0_E
FNDA:11,_ZNSt10__pair_getILy0EE10__move_getIP15QTypedArrayDataI7QStringEPS3_EEOT_OSt4pairIS7_T0_E
FN:183,_ZNSt10__pair_getILy0EE10__move_getIP15QTypedArrayDataI5QListI7QStringEEPS5_EEOT_OSt4pairIS9_T0_E
FNDA:2,_ZNSt10__pair_getILy0EE10__move_getIP15QTypedArrayDataI5QListI7QStringEEPS5_EEOT_OSt4pairIS9_T0_E
FN:207,_ZNSt10__pair_getILy1EE10__move_getIP15QTypedArrayDataI7QStringEPS3_EEOT0_OSt4pairIT_S7_E
FNDA:11,_ZNSt10__pair_getILy1EE10__move_getIP15QTypedArrayDataI7QStringEPS3_EEOT0_OSt4pairIT_S7_E
FN:207,_ZNSt10__pair_getILy1EE10__move_getIP15QTypedArrayDataI5QListI7QStringEEPS5_EEOT0_OSt4pairIT_S9_E
FNDA:2,_ZNSt10__pair_getILy1EE10__move_getIP15QTypedArrayDataI5QListI7QStringEEPS5_EEOT0_OSt4pairIT_S9_E
FN:228,_ZSt3getILy1EP15QTypedArrayDataI7QStringEPS1_EONSt13tuple_elementIXT_ESt4pairIT0_T1_EE4typeEOS9_
FNDA:11,_ZSt3getILy1EP15QTypedArrayDataI7QStringEPS1_EONSt13tuple_elementIXT_ESt4pairIT0_T1_EE4typeEOS9_
FN:228,_ZSt3getILy0EP15QTypedArrayDataI7QStringEPS1_EONSt13tuple_elementIXT_ESt4pairIT0_T1_EE4typeEOS9_
FNDA:11,_ZSt3getILy0EP15QTypedArrayDataI7QStringEPS1_EONSt13tuple_elementIXT_ESt4pairIT0_T1_EE4typeEOS9_
FN:228,_ZSt3getILy1EP15QTypedArrayDataI5QListI7QStringEEPS3_EONSt13tuple_elementIXT_ESt4pairIT0_T1_EE4typeEOSB_
FNDA:2,_ZSt3getILy1EP15QTypedArrayDataI5QListI7QStringEEPS3_EONSt13tuple_elementIXT_ESt4pairIT0_T1_EE4typeEOSB_
FN:228,_ZSt3getILy0EP15QTypedArrayDataI5QListI7QStringEEPS3_EONSt13tuple_elementIXT_ESt4pairIT0_T1_EE4typeEOSB_
FNDA:2,_ZSt3getILy0EP15QTypedArrayDataI5QListI7QStringEEPS3_EONSt13tuple_elementIXT_ESt4pairIT0_T1_EE4typeEOSB_
DA:183,11
DA:184,11
DA:183,2
DA:184,2
DA:207,11
DA:208,11
DA:207,2
DA:208,2
DA:228,11
DA:229,11
DA:228,11
DA:229,11
DA:228,2
DA:229,2
DA:228,2
DA:229,2
end_of_record
SF:C:
Users
USER
Documents
UFMG
6
teste
testes_tp
build/C:/Qt/Tools/mingw1120_64/lib/gcc/x86_64-w64-mingw32/11.2.0/include/c++/new
FN:174,_ZnwyPv
FNDA:0,_ZnwyPv
DA:174,0
DA:175,0
end_of_record
SF:C:
Users
USER
Documents
UFMG
6
teste
testes_tp
build/C:/Qt/Tools/mingw1120_64/lib/gcc/x86_64-w64-mingw32/11.2.0/include/c++/bits/stl_iterator_base_types.h
FN:238,_ZSt19__iterator_categoryIPK7QStringENSt15iterator_traitsIT_E17iterator_categoryERKS4_
FNDA:0,_ZSt19__iterator_categoryIPK7QStringENSt15iterator_traitsIT_E17iterator_categoryERKS4_
FN:238,_ZSt19__iterator_categoryIPK5QListI7QStringEENSt15iterator_traitsIT_E17iterator_categoryERKS6_
FNDA:0,_ZSt19__iterator_categoryIPK5QListI7QStringEENSt15iterator_traitsIT_E17iterator_categoryERKS6_
FN:238,_ZSt19__iterator_categoryIN5QListIS0_I7QStringEE14const_iteratorEENSt15iterator_traitsIT_E17iterator_categoryERKS6_
FNDA:0,_ZSt19__iterator_categoryIN5QListIS0_I7QStringEE14const_iteratorEENSt15iterator_traitsIT_E17iterator_categoryERKS6_
DA:238,0
DA:239,0
DA:238,0
DA:239,0
DA:238,0
DA:239,0
end_of_record
SF:C:
Users
USER
Documents
UFMG
6
teste
testes_tp
build/C:/Qt/6.6.0/mingw_64/include/QtCore/qbasicatomic.h
FN:38,_ZNK19QBasicAtomicIntegerIiE11loadRelaxedEv
FNDA:0,_ZNK19QBasicAtomicIntegerIiE11loadRelaxedEv
FN:49,_ZN19QBasicAtomicIntegerIiE3refEv
FNDA:0,_ZN19QBasicAtomicIntegerIiE3refEv
FN:50,_ZN19QBasicAtomicIntegerIiE5derefEv
FNDA:0,_ZN19QBasicAtomicIntegerIiE5derefEv
DA:38,0
DA:49,0
DA:50,0
end_of_record
SF:C:
Users
USER
Documents
UFMG
6
teste
testes_tp
build/C:/Qt/6.6.0/mingw_64/include/QtCore/qarraydata.h
FN:43,_ZNK10QArrayData22constAllocatedCapacityEv
FNDA:0,_ZNK10QArrayData22constAllocatedCapacityEv
FN:49,_ZN10QArrayData3refEv
FNDA:0,_ZN10QArrayData3refEv
FN:56,_ZN10QArrayData5derefEv
FNDA:0,_ZN10QArrayData5derefEv
FN:61,_ZNK10QArrayData8isSharedEv
FNDA:0,_ZNK10QArrayData8isSharedEv
FN:69,_ZNK10QArrayData11needsDetachEv
FNDA:932,_ZNK10QArrayData11needsDetachEv
FN:74,_ZNK10QArrayData14detachCapacityEx
FNDA:0,_ZNK10QArrayData14detachCapacityEx
FN:101,_ZN15QTypedArrayDataI5QListI7QStringEE8allocateExN10QArrayData16AllocationOptionE
FNDA:41,_ZN15QTypedArrayDataI5QListI7QStringEE8allocateExN10QArrayData16AllocationOptionE
FN:101,_ZN15QTypedArrayDataI7QStringE8allocateExN10QArrayData16AllocationOptionE
FNDA:0,_ZN15QTypedArrayDataI7QStringE8allocateExN10QArrayData16AllocationOptionE
FN:113,_ZN15QTypedArrayDataI7QStringE19reallocateUnalignedEPS1_PS0_xN10QArrayData16AllocationOptionE
FNDA:22,_ZN15QTypedArrayDataI7QStringE19reallocateUnalignedEPS1_PS0_xN10QArrayData16AllocationOptionE
FN:113,_ZN15QTypedArrayDataI5QListI7QStringEE19reallocateUnalignedEPS3_PS2_xN10QArrayData16AllocationOptionE
FNDA:2,_ZN15QTypedArrayDataI5QListI7QStringEE19reallocateUnalignedEPS3_PS2_xN10QArrayData16AllocationOptionE
FN:127,_ZN15QTypedArrayDataI5QListI7QStringEE9dataStartEP10QArrayDatax
FNDA:60,_ZN15QTypedArrayDataI5QListI7QStringEE9dataStartEP10QArrayDatax
FN:127,_ZN15QTypedArrayDataI7QStringE9dataStartEP10QArrayDatax
FNDA:0,_ZN15QTypedArrayDataI7QStringE9dataStartEP10QArrayDatax
DA:43,0
DA:45,0
DA:49,0
DA:51,0
DA:52,0
DA:56,0
DA:58,0
DA:61,0
DA:63,0
DA:69,932
DA:71,932
DA:74,0
DA:76,0
DA:77,0
DA:78,0
DA:101,41
DA:105,41
DA:107,41
DA:109,41
DA:101,0
DA:105,0
DA:107,0
DA:109,0
DA:113,22
DA:117,22
DA:118,22
DA:113,2
DA:117,2
DA:118,2
DA:127,60
DA:130,60
DA:131,60
DA:132,60
DA:133,60
DA:127,0
DA:130,0
DA:131,0
DA:132,0
DA:133,0
end_of_record
SF:C:
Users
USER
Documents
UFMG
6
teste
testes_tp
build/C:/Qt/6.6.0/mingw_64/include/QtCore/qatomic_cxx11.h
FN:199,_ZN10QAtomicOpsIiE11loadRelaxedIiEET_RKSt6atomicIS2_E
FNDA:0,_ZN10QAtomicOpsIiE11loadRelaxedIiEET_RKSt6atomicIS2_E
FN:243,_ZN10QAtomicOpsIiE3refIiEEbRSt6atomicIT_E
FNDA:0,_ZN10QAtomicOpsIiE3refIiEEbRSt6atomicIT_E
FN:262,_ZN10QAtomicOpsIiE5derefIiEEbRSt6atomicIT_E
FNDA:0,_ZN10QAtomicOpsIiE5derefIiEEbRSt6atomicIT_E
DA:199,0
DA:201,0
DA:243,0
DA:258,0
DA:262,0
DA:265,0
end_of_record
SF:C:
Users
USER
Documents
UFMG
6
teste
testes_tp
build/C:/Qt/Tools/mingw1120_64/lib/gcc/x86_64-w64-mingw32/11.2.0/include/c++/bits/range_access.h
FN:61,_ZSt5beginI17QArrayDataPointerI7QStringEEDTcldtfp_5beginEERKT_
FNDA:0,_ZSt5beginI17QArrayDataPointerI7QStringEEDTcldtfp_5beginEERKT_
FN:61,_ZSt5beginI17QArrayDataPointerI5QListI7QStringEEEDTcldtfp_5beginEERKT_
FNDA:0,_ZSt5beginI17QArrayDataPointerI5QListI7QStringEEEDTcldtfp_5beginEERKT_
FN:81,_ZSt3endI17QArrayDataPointerI7QStringEEDTcldtfp_3endEERKT_
FNDA:0,_ZSt3endI17QArrayDataPointerI7QStringEEDTcldtfp_3endEERKT_
FN:81,_ZSt3endI17QArrayDataPointerI5QListI7QStringEEEDTcldtfp_3endEERKT_
FNDA:0,_ZSt3endI17QArrayDataPointerI5QListI7QStringEEEDTcldtfp_3endEERKT_
FN:300,_ZSt4dataI17QArrayDataPointerI7QStringEEDTcldtfp_4dataEERKT_
FNDA:0,_ZSt4dataI17QArrayDataPointerI7QStringEEDTcldtfp_4dataEERKT_
FN:300,_ZSt4dataI17QArrayDataPointerI5QListI7QStringEEEDTcldtfp_4dataEERKT_
FNDA:0,_ZSt4dataI17QArrayDataPointerI5QListI7QStringEEEDTcldtfp_4dataEERKT_
DA:61,0
DA:62,0
DA:61,0
DA:62,0
DA:81,0
DA:82,0
DA:81,0
DA:82,0
DA:300,0
DA:302,0
DA:300,0
DA:302,0
end_of_record
SF:C:
Users
USER
Documents
UFMG
6
teste
testes_tp
build/..
mocked_agenda_interface.h
end_of_record
SF:C:
Users
USER
Documents
UFMG
6
teste
testes_tp
build/C:/Qt/Tools/mingw1120_64/lib/gcc/x86_64-w64-mingw32/11.2.0/include/c++/bits/stl_pair.h
FN:352,_ZNSt4pairIP15QTypedArrayDataI5QListI7QStringEEPS3_EC1IS5_S6_Lb1EEEOT_OT0_
FNDA:43,_ZNSt4pairIP15QTypedArrayDataI5QListI7QStringEEPS3_EC1IS5_S6_Lb1EEEOT_OT0_
FN:352,_ZNSt4pairIP15QTypedArrayDataI7QStringEPS1_EC1IS3_S4_Lb1EEEOT_OT0_
FNDA:0,_ZNSt4pairIP15QTypedArrayDataI7QStringEPS1_EC1IS3_S4_Lb1EEEOT_OT0_
FN:567,_ZSt9make_pairIP15QTypedArrayDataI5QListI7QStringEEPS3_ESt4pairINSt25__strip_reference_wrapperINSt5decayIT_E4typeEE6__typeENS8_INS9_IT0_E4typeEE6__typeEEOSA_OSF_
FNDA:43,_ZSt9make_pairIP15QTypedArrayDataI5QListI7QStringEEPS3_ESt4pairINSt25__strip_reference_wrapperINSt5decayIT_E4typeEE6__typeENS8_INS9_IT0_E4typeEE6__typeEEOSA_OSF_
FN:567,_ZSt9make_pairIP15QTypedArrayDataI7QStringEPS1_ESt4pairINSt25__strip_reference_wrapperINSt5decayIT_E4typeEE6__typeENS6_INS7_IT0_E4typeEE6__typeEEOS8_OSD_
FNDA:0,_ZSt9make_pairIP15QTypedArrayDataI7QStringEPS1_ESt4pairINSt25__strip_reference_wrapperINSt5decayIT_E4typeEE6__typeENS6_INS7_IT0_E4typeEE6__typeEEOS8_OSD_
DA:352,43
DA:353,43
DA:352,0
DA:353,0
DA:567,43
DA:572,43
DA:567,0
DA:572,0
end_of_record
SF:C:
Users
USER
Documents
UFMG
6
teste
testes_tp
build/C:/Qt/6.6.0/mingw_64/include/QtCore/qarraydataops.h
FN:95,_ZN9QtPrivate12QPodArrayOpsIDsE10destroyAllEv
FNDA:0,_ZN9QtPrivate12QPodArrayOpsIDsE10destroyAllEv
FN:329,_ZN9QtPrivate16QGenericArrayOpsI7QStringE10copyAppendEPKS1_S4_
FNDA:0,_ZN9QtPrivate16QGenericArrayOpsI7QStringE10copyAppendEPKS1_S4_
FN:329,_ZN9QtPrivate16QGenericArrayOpsI5QListI7QStringEE10copyAppendEPKS3_S6_
FNDA:39,_ZN9QtPrivate16QGenericArrayOpsI5QListI7QStringEE10copyAppendEPKS3_S6_
FN:361,_ZN9QtPrivate16QGenericArrayOpsI5QListI7QStringEE10moveAppendEPS3_S5_
FNDA:0,_ZN9QtPrivate16QGenericArrayOpsI5QListI7QStringEE10moveAppendEPS3_S5_
FN:361,_ZN9QtPrivate16QGenericArrayOpsI7QStringE10moveAppendEPS1_S3_
FNDA:0,_ZN9QtPrivate16QGenericArrayOpsI7QStringE10moveAppendEPS1_S3_
FN:389,_ZN9QtPrivate16QGenericArrayOpsI7QStringE10destroyAllEv
FNDA:0,_ZN9QtPrivate16QGenericArrayOpsI7QStringE10destroyAllEv
FN:389,_ZN9QtPrivate16QGenericArrayOpsI5QListI7QStringEE10destroyAllEv
FNDA:0,_ZN9QtPrivate16QGenericArrayOpsI5QListI7QStringEE10destroyAllEv
FN:704,_ZN9QtPrivate16QMovableArrayOpsI7QStringE8InserterC1EP17QArrayDataPointerIS1_E
FNDA:33,_ZN9QtPrivate16QMovableArrayOpsI7QStringE8InserterC1EP17QArrayDataPointerIS1_E
FN:704,_ZN9QtPrivate16QMovableArrayOpsI5QListI7QStringEE8InserterC1EP17QArrayDataPointerIS3_E
FNDA:4,_ZN9QtPrivate16QMovableArrayOpsI5QListI7QStringEE8InserterC1EP17QArrayDataPointerIS3_E
FN:705,_ZN9QtPrivate16QMovableArrayOpsI7QStringE8InserterD1Ev
FNDA:33,_ZN9QtPrivate16QMovableArrayOpsI7QStringE8InserterD1Ev
FN:705,_ZN9QtPrivate16QMovableArrayOpsI5QListI7QStringEE8InserterD1Ev
FNDA:4,_ZN9QtPrivate16QMovableArrayOpsI5QListI7QStringEE8InserterD1Ev
FN:716,_ZN9QtPrivate16QMovableArrayOpsI7QStringE8Inserter8displaceExx
FNDA:33,_ZN9QtPrivate16QMovableArrayOpsI7QStringE8Inserter8displaceExx
FN:716,_ZN9QtPrivate16QMovableArrayOpsI5QListI7QStringEE8Inserter8displaceExx
FNDA:4,_ZN9QtPrivate16QMovableArrayOpsI5QListI7QStringEE8Inserter8displaceExx
FN:751,_ZN9QtPrivate16QMovableArrayOpsI5QListI7QStringEE8Inserter9insertOneExOS3_
FNDA:4,_ZN9QtPrivate16QMovableArrayOpsI5QListI7QStringEE8Inserter9insertOneExOS3_
FN:751,_ZN9QtPrivate16QMovableArrayOpsI7QStringE8Inserter9insertOneExOS1_
FNDA:33,_ZN9QtPrivate16QMovableArrayOpsI7QStringE8Inserter9insertOneExOS1_
FN:811,_ZN9QtPrivate16QMovableArrayOpsI5QListI7QStringEE7emplaceIJRKS3_EEEvxDpOT_
FNDA:11,_ZN9QtPrivate16QMovableArrayOpsI5QListI7QStringEE7emplaceIJRKS3_EEEvxDpOT_
FN:811,_ZN9QtPrivate16QMovableArrayOpsI7QStringE7emplaceIJRKS1_EEEvxDpOT_
FNDA:0,_ZN9QtPrivate16QMovableArrayOpsI7QStringE7emplaceIJRKS1_EEEvxDpOT_
FN:842,_ZN9QtPrivate16QMovableArrayOpsI5QListI7QStringEE5eraseEPS3_x
FNDA:0,_ZN9QtPrivate16QMovableArrayOpsI5QListI7QStringEE5eraseEPS3_x
FN:865,_ZN9QtPrivate16QMovableArrayOpsI5QListI7QStringEE10reallocateExN10QArrayData16AllocationOptionE
FNDA:2,_ZN9QtPrivate16QMovableArrayOpsI5QListI7QStringEE10reallocateExN10QArrayData16AllocationOptionE
FN:865,_ZN9QtPrivate16QMovableArrayOpsI7QStringE10reallocateExN10QArrayData16AllocationOptionE
FNDA:22,_ZN9QtPrivate16QMovableArrayOpsI7QStringE10reallocateExN10QArrayData16AllocationOptionE
DA:95,0
DA:97,0
DA:98,0
DA:102,0
DA:329,39
DA:331,39
DA:332,39
DA:333,39
DA:334,39
DA:336,39
DA:337,0
DA:339,39
DA:340,156
DA:341,117
DA:342,117
DA:343,117
DA:329,0
DA:331,0
DA:332,0
DA:333,0
DA:334,0
DA:336,0
DA:337,0
DA:339,0
DA:340,0
DA:341,0
DA:342,0
DA:343,0
DA:361,0
DA:363,0
DA:364,0
DA:365,0
DA:366,0
DA:368,0
DA:369,0
DA:371,0
DA:372,0
DA:373,0
DA:374,0
DA:375,0
DA:361,0
DA:363,0
DA:364,0
DA:365,0
DA:366,0
DA:368,0
DA:369,0
DA:371,0
DA:372,0
DA:373,0
DA:374,0
DA:375,0
DA:389,0
DA:391,0
DA:395,0
DA:397,0
DA:398,0
DA:389,0
DA:391,0
DA:395,0
DA:397,0
DA:398,0
DA:704,33
DA:704,4
DA:705,33
DA:712,33
DA:713,33
DA:705,4
DA:712,4
DA:713,4
DA:716,33
DA:718,33
DA:719,33
DA:720,33
DA:721,33
DA:722,33
DA:723,33
DA:724,33
DA:725,33
DA:716,4
DA:718,4
DA:719,4
DA:720,4
DA:721,4
DA:722,4
DA:723,4
DA:724,4
DA:725,4
DA:751,33
DA:753,33
DA:754,33
DA:755,33
DA:756,33
DA:757,33
DA:751,4
DA:753,4
DA:754,4
DA:755,4
DA:756,4
DA:757,4
DA:811,0
DA:813,0
DA:814,0
DA:815,0
DA:816,0
DA:817,0
DA:818,0
DA:820,0
DA:821,0
DA:822,0
DA:823,0
DA:824,0
DA:827,0
DA:828,0
DA:829,0
DA:831,0
DA:832,0
DA:833,0
DA:834,0
DA:835,0
DA:836,0
DA:838,0
DA:840,0
DA:811,11
DA:813,11
DA:814,11
DA:815,9
DA:816,7
DA:817,7
DA:818,7
DA:820,2
DA:821,0
DA:822,0
DA:823,0
DA:824,0
DA:827,4
DA:828,4
DA:829,4
DA:831,4
DA:832,4
DA:833,0
DA:834,0
DA:835,0
DA:836,0
DA:838,4
DA:840,4
DA:842,0
DA:844,0
DA:846,0
DA:847,0
DA:848,0
DA:849,0
DA:856,0
DA:857,0
DA:858,0
DA:859,0
DA:860,0
DA:862,0
DA:863,0
DA:865,22
DA:867,22
DA:868,22
DA:869,22
DA:870,22
DA:871,22
DA:872,22
DA:865,2
DA:867,2
DA:868,2
DA:869,2
DA:870,2
DA:871,2
DA:872,2
end_of_record
TN:
SF:C:
Users
USER
Documents
UFMG
6
teste
testes_tp
build/C:/Qt/6.6.0/mingw_64/include/QtCore/qmetatype.h
FN:440,_ZN9QMetaTypeC1Ev
FNDA:0,_ZN9QMetaTypeC1Ev
FN:991,_ZN9QtPrivate17MetaObjectForTypeI17adicionar_contatovE18metaObjectFunctionEPKNS_18QMetaTypeInterfaceE
FNDA:0,_ZN9QtPrivate17MetaObjectForTypeI17adicionar_contatovE18metaObjectFunctionEPKNS_18QMetaTypeInterfaceE
FN:2406,_ZZN9QtPrivate16QMetaTypeForTypeI17adicionar_contatoE13getDefaultCtrEvENKUlPKNS_18QMetaTypeInterfaceEPvE_clES5_S6_
FNDA:0,_ZZN9QtPrivate16QMetaTypeForTypeI17adicionar_contatoE13getDefaultCtrEvENKUlPKNS_18QMetaTypeInterfaceEPvE_clES5_S6_
FN:2437,_ZZN9QtPrivate16QMetaTypeForTypeI17adicionar_contatoE7getDtorEvENKUlPKNS_18QMetaTypeInterfaceEPvE_clES5_S6_
FNDA:0,_ZZN9QtPrivate16QMetaTypeForTypeI17adicionar_contatoE7getDtorEvENKUlPKNS_18QMetaTypeInterfaceEPvE_clES5_S6_
DA:440,0
DA:991,0
DA:2406,0
DA:2437,0
DA:2438,0
end_of_record
SF:C:
Users
USER
Documents
UFMG
6
teste
testes_tp
build/C:/Qt/Tools/mingw1120_64/lib/gcc/x86_64-w64-mingw32/11.2.0/include/c++/new
FN:174,_ZnwyPv
FNDA:0,_ZnwyPv
FN:180,_ZdlPvS_
FNDA:0,_ZdlPvS_
DA:174,0
DA:175,0
DA:180,0
end_of_record
SF:C:
Users
USER
Documents
UFMG
6
teste
testes_tp
build/C:/Qt/6.6.0/mingw_64/include/QtCore/qscopedpointer.h
FN:90,_ZNK14QScopedPointerI11QObjectData21QScopedPointerDeleterIS0_EEptEv
FNDA:0,_ZNK14QScopedPointerI11QObjectData21QScopedPointerDeleterIS0_EEptEv
DA:90,0
DA:92,0
end_of_record
SF:C:
Users
USER
Documents
UFMG
6
teste
testes_tp
build/debug
moc_adicionar_contato.cpp
FN:113,_ZN17adicionar_contato18qt_static_metacallEP7QObjectN11QMetaObject4CallEiPPv
FNDA:2,_ZN17adicionar_contato18qt_static_metacallEP7QObjectN11QMetaObject4CallEiPPv
FN:127,_ZNK17adicionar_contato10metaObjectEv
FNDA:645,_ZNK17adicionar_contato10metaObjectEv
FN:132,_ZN17adicionar_contato11qt_metacastEPKc
FNDA:44,_ZN17adicionar_contato11qt_metacastEPKc
FN:140,_ZN17adicionar_contato11qt_metacallEN11QMetaObject4CallEiPPv
FNDA:108,_ZN17adicionar_contato11qt_metacallEN11QMetaObject4CallEiPPv
DA:113,2
DA:115,2
DA:116,2
DA:118,2
DA:119,2
DA:120,0
DA:121,2
DA:125,2
DA:127,645
DA:129,645
DA:132,44
DA:134,44
DA:135,44
DA:136,0
DA:137,44
DA:140,108
DA:142,108
DA:143,108
DA:144,106
DA:145,2
DA:146,2
DA:147,2
DA:148,2
DA:149,0
DA:150,0
DA:151,0
DA:152,0
DA:154,2
end_of_record
SF:C:
Users
USER
Documents
UFMG
6
teste
testes_tp
build/C:/Qt/6.6.0/mingw_64/include/QtCore/qobjectdefs.h
FN:484,_ZN11QMetaObject16staticMetaObjectIL_ZN7QDialog16staticMetaObjectEEEEPKS_v
FNDA:8684,_ZN11QMetaObject16staticMetaObjectIL_ZN7QDialog16staticMetaObjectEEEEPKS_v
DA:484,8684
DA:486,8684
end_of_record
TN:
SF:C:
Users
USER
Documents
UFMG
6
teste
testes_tp
build/C:/Qt/Tools/mingw1120_64/lib/gcc/x86_64-w64-mingw32/11.2.0/include/c++/new
FN:174,_ZnwyPv
FNDA:0,_ZnwyPv
FN:180,_ZdlPvS_
FNDA:0,_ZdlPvS_
DA:174,0
DA:175,0
DA:180,0
end_of_record
SF:C:
Users
USER
Documents
UFMG
6
teste
testes_tp
build/C:/Qt/6.6.0/mingw_64/include/QtCore/qscopedpointer.h
FN:90,_ZNK14QScopedPointerI11QObjectData21QScopedPointerDeleterIS0_EEptEv
FNDA:0,_ZNK14QScopedPointerI11QObjectData21QScopedPointerDeleterIS0_EEptEv
DA:90,0
DA:92,0
end_of_record
SF:C:
Users
USER
Documents
UFMG
6
teste
testes_tp
build/debug
moc_atualizar_contato.cpp
FN:113,_ZN17atualizar_contato18qt_static_metacallEP7QObjectN11QMetaObject4CallEiPPv
FNDA:1,_ZN17atualizar_contato18qt_static_metacallEP7QObjectN11QMetaObject4CallEiPPv
FN:127,_ZNK17atualizar_contato10metaObjectEv
FNDA:336,_ZNK17atualizar_contato10metaObjectEv
FN:132,_ZN17atualizar_contato11qt_metacastEPKc
FNDA:16,_ZN17atualizar_contato11qt_metacastEPKc
FN:140,_ZN17atualizar_contato11qt_metacallEN11QMetaObject4CallEiPPv
FNDA:55,_ZN17atualizar_contato11qt_metacallEN11QMetaObject4CallEiPPv
DA:113,1
DA:115,1
DA:116,1
DA:118,1
DA:119,1
DA:120,0
DA:121,1
DA:125,1
DA:127,336
DA:129,336
DA:132,16
DA:134,16
DA:135,16
DA:136,0
DA:137,16
DA:140,55
DA:142,55
DA:143,55
DA:144,54
DA:145,1
DA:146,1
DA:147,1
DA:148,1
DA:149,0
DA:150,0
DA:151,0
DA:152,0
DA:154,1
end_of_record
SF:C:
Users
USER
Documents
UFMG
6
teste
testes_tp
build/C:/Qt/6.6.0/mingw_64/include/QtCore/qmetatype.h
FN:440,_ZN9QMetaTypeC1Ev
FNDA:0,_ZN9QMetaTypeC1Ev
FN:991,_ZN9QtPrivate17MetaObjectForTypeI17atualizar_contatovE18metaObjectFunctionEPKNS_18QMetaTypeInterfaceE
FNDA:0,_ZN9QtPrivate17MetaObjectForTypeI17atualizar_contatovE18metaObjectFunctionEPKNS_18QMetaTypeInterfaceE
FN:2406,_ZZN9QtPrivate16QMetaTypeForTypeI17atualizar_contatoE13getDefaultCtrEvENKUlPKNS_18QMetaTypeInterfaceEPvE_clES5_S6_
FNDA:0,_ZZN9QtPrivate16QMetaTypeForTypeI17atualizar_contatoE13getDefaultCtrEvENKUlPKNS_18QMetaTypeInterfaceEPvE_clES5_S6_
FN:2437,_ZZN9QtPrivate16QMetaTypeForTypeI17atualizar_contatoE7getDtorEvENKUlPKNS_18QMetaTypeInterfaceEPvE_clES5_S6_
FNDA:0,_ZZN9QtPrivate16QMetaTypeForTypeI17atualizar_contatoE7getDtorEvENKUlPKNS_18QMetaTypeInterfaceEPvE_clES5_S6_
DA:440,0
DA:991,0
DA:2406,0
DA:2437,0
DA:2438,0
end_of_record
SF:C:
Users
USER
Documents
UFMG
6
teste
testes_tp
build/C:/Qt/6.6.0/mingw_64/include/QtCore/qobjectdefs.h
FN:484,_ZN11QMetaObject16staticMetaObjectIL_ZN7QDialog16staticMetaObjectEEEEPKS_v
FNDA:0,_ZN11QMetaObject16staticMetaObjectIL_ZN7QDialog16staticMetaObjectEEEEPKS_v
DA:484,0
DA:486,0
end_of_record
TN:
SF:C:
Users
USER
Documents
UFMG
6
teste
testes_tp
build/C:/Qt/Tools/mingw1120_64/lib/gcc/x86_64-w64-mingw32/11.2.0/include/c++/new
FN:174,_ZnwyPv
FNDA:0,_ZnwyPv
FN:180,_ZdlPvS_
FNDA:0,_ZdlPvS_
DA:174,0
DA:175,0
DA:180,0
end_of_record
SF:C:
Users
USER
Documents
UFMG
6
teste
testes_tp
build/C:/Qt/6.6.0/mingw_64/include/QtCore/qscopedpointer.h
FN:90,_ZNK14QScopedPointerI11QObjectData21QScopedPointerDeleterIS0_EEptEv
FNDA:0,_ZNK14QScopedPointerI11QObjectData21QScopedPointerDeleterIS0_EEptEv
DA:90,0
DA:92,0
end_of_record
SF:C:
Users
USER
Documents
UFMG
6
teste
testes_tp
build/debug
moc_cadastrar.cpp
FN:113,_ZN9cadastrar18qt_static_metacallEP7QObjectN11QMetaObject4CallEiPPv
FNDA:0,_ZN9cadastrar18qt_static_metacallEP7QObjectN11QMetaObject4CallEiPPv
FN:127,_ZNK9cadastrar10metaObjectEv
FNDA:140,_ZNK9cadastrar10metaObjectEv
FN:132,_ZN9cadastrar11qt_metacastEPKc
FNDA:8,_ZN9cadastrar11qt_metacastEPKc
FN:140,_ZN9cadastrar11qt_metacallEN11QMetaObject4CallEiPPv
FNDA:18,_ZN9cadastrar11qt_metacallEN11QMetaObject4CallEiPPv
DA:113,0
DA:115,0
DA:116,0
DA:118,0
DA:119,0
DA:120,0
DA:121,0
DA:125,0
DA:127,140
DA:129,140
DA:132,8
DA:134,8
DA:135,8
DA:136,0
DA:137,8
DA:140,18
DA:142,18
DA:143,18
DA:144,18
DA:145,0
DA:146,0
DA:147,0
DA:148,0
DA:149,0
DA:150,0
DA:151,0
DA:152,0
DA:154,0
end_of_record
SF:C:
Users
USER
Documents
UFMG
6
teste
testes_tp
build/C:/Qt/6.6.0/mingw_64/include/QtCore/qmetatype.h
FN:440,_ZN9QMetaTypeC1Ev
FNDA:0,_ZN9QMetaTypeC1Ev
FN:991,_ZN9QtPrivate17MetaObjectForTypeI9cadastrarvE18metaObjectFunctionEPKNS_18QMetaTypeInterfaceE
FNDA:0,_ZN9QtPrivate17MetaObjectForTypeI9cadastrarvE18metaObjectFunctionEPKNS_18QMetaTypeInterfaceE
FN:2406,_ZZN9QtPrivate16QMetaTypeForTypeI9cadastrarE13getDefaultCtrEvENKUlPKNS_18QMetaTypeInterfaceEPvE_clES5_S6_
FNDA:0,_ZZN9QtPrivate16QMetaTypeForTypeI9cadastrarE13getDefaultCtrEvENKUlPKNS_18QMetaTypeInterfaceEPvE_clES5_S6_
FN:2437,_ZZN9QtPrivate16QMetaTypeForTypeI9cadastrarE7getDtorEvENKUlPKNS_18QMetaTypeInterfaceEPvE_clES5_S6_
FNDA:0,_ZZN9QtPrivate16QMetaTypeForTypeI9cadastrarE7getDtorEvENKUlPKNS_18QMetaTypeInterfaceEPvE_clES5_S6_
DA:440,0
DA:991,0
DA:2406,0
DA:2437,0
DA:2438,0
end_of_record
SF:C:
Users
USER
Documents
UFMG
6
teste
testes_tp
build/C:/Qt/6.6.0/mingw_64/include/QtCore/qobjectdefs.h
FN:484,_ZN11QMetaObject16staticMetaObjectIL_ZN7QDialog16staticMetaObjectEEEEPKS_v
FNDA:0,_ZN11QMetaObject16staticMetaObjectIL_ZN7QDialog16staticMetaObjectEEEEPKS_v
DA:484,0
DA:486,0
end_of_record
TN:
SF:C:
Users
USER
Documents
UFMG
6
teste
testes_tp
build/C:/Qt/6.6.0/mingw_64/include/QtCore/qscopedpointer.h
FN:90,_ZNK14QScopedPointerI11QObjectData21QScopedPointerDeleterIS0_EEptEv
FNDA:0,_ZNK14QScopedPointerI11QObjectData21QScopedPointerDeleterIS0_EEptEv
DA:90,0
DA:92,0
end_of_record
SF:C:
Users
USER
Documents
UFMG
6
teste
testes_tp
build/C:/Qt/Tools/mingw1120_64/lib/gcc/x86_64-w64-mingw32/11.2.0/include/c++/new
FN:174,_ZnwyPv
FNDA:0,_ZnwyPv
FN:180,_ZdlPvS_
FNDA:0,_ZdlPvS_
DA:174,0
DA:175,0
DA:180,0
end_of_record
SF:C:
Users
USER
Documents
UFMG
6
teste
testes_tp
build/debug
moc_login.cpp
FN:113,_ZN5login18qt_static_metacallEP7QObjectN11QMetaObject4CallEiPPv
FNDA:0,_ZN5login18qt_static_metacallEP7QObjectN11QMetaObject4CallEiPPv
FN:127,_ZNK5login10metaObjectEv
FNDA:1479,_ZNK5login10metaObjectEv
FN:132,_ZN5login11qt_metacastEPKc
FNDA:47,_ZN5login11qt_metacastEPKc
FN:140,_ZN5login11qt_metacallEN11QMetaObject4CallEiPPv
FNDA:266,_ZN5login11qt_metacallEN11QMetaObject4CallEiPPv
DA:113,0
DA:115,0
DA:116,0
DA:118,0
DA:119,0
DA:120,0
DA:121,0
DA:125,0
DA:127,1479
DA:129,1479
DA:132,47
DA:134,47
DA:135,47
DA:136,0
DA:137,47
DA:140,266
DA:142,266
DA:143,266
DA:144,266
DA:145,0
DA:146,0
DA:147,0
DA:148,0
DA:149,0
DA:150,0
DA:151,0
DA:152,0
DA:154,0
end_of_record
SF:C:
Users
USER
Documents
UFMG
6
teste
testes_tp
build/C:/Qt/6.6.0/mingw_64/include/QtCore/qmetatype.h
FN:440,_ZN9QMetaTypeC1Ev
FNDA:0,_ZN9QMetaTypeC1Ev
FN:991,_ZN9QtPrivate17MetaObjectForTypeI5loginvE18metaObjectFunctionEPKNS_18QMetaTypeInterfaceE
FNDA:0,_ZN9QtPrivate17MetaObjectForTypeI5loginvE18metaObjectFunctionEPKNS_18QMetaTypeInterfaceE
FN:2406,_ZZN9QtPrivate16QMetaTypeForTypeI5loginE13getDefaultCtrEvENKUlPKNS_18QMetaTypeInterfaceEPvE_clES5_S6_
FNDA:0,_ZZN9QtPrivate16QMetaTypeForTypeI5loginE13getDefaultCtrEvENKUlPKNS_18QMetaTypeInterfaceEPvE_clES5_S6_
FN:2437,_ZZN9QtPrivate16QMetaTypeForTypeI5loginE7getDtorEvENKUlPKNS_18QMetaTypeInterfaceEPvE_clES5_S6_
FNDA:0,_ZZN9QtPrivate16QMetaTypeForTypeI5loginE7getDtorEvENKUlPKNS_18QMetaTypeInterfaceEPvE_clES5_S6_
DA:440,0
DA:991,0
DA:2406,0
DA:2437,0
DA:2438,0
end_of_record
SF:C:
Users
USER
Documents
UFMG
6
teste
testes_tp
build/C:/Qt/6.6.0/mingw_64/include/QtCore/qobjectdefs.h
FN:484,_ZN11QMetaObject16staticMetaObjectIL_ZN11QMainWindow16staticMetaObjectEEEEPKS_v
FNDA:4435,_ZN11QMetaObject16staticMetaObjectIL_ZN11QMainWindow16staticMetaObjectEEEEPKS_v
DA:484,4435
DA:486,4435
end_of_record
TN:
SF:C:
Users
USER
Documents
UFMG
6
teste
testes_tp
build/C:/Qt/6.6.0/mingw_64/include/QtCore/qobjectdefs.h
FN:484,_ZN11QMetaObject16staticMetaObjectIL_ZN7QDialog16staticMetaObjectEEEEPKS_v
FNDA:0,_ZN11QMetaObject16staticMetaObjectIL_ZN7QDialog16staticMetaObjectEEEEPKS_v
DA:484,0
DA:486,0
end_of_record
SF:C:
Users
USER
Documents
UFMG
6
teste
testes_tp
build/debug
moc_pagina_principal.cpp
FN:121,_ZN16pagina_principal18qt_static_metacallEP7QObjectN11QMetaObject4CallEiPPv
FNDA:0,_ZN16pagina_principal18qt_static_metacallEP7QObjectN11QMetaObject4CallEiPPv
FN:136,_ZNK16pagina_principal10metaObjectEv
FNDA:411,_ZNK16pagina_principal10metaObjectEv
FN:141,_ZN16pagina_principal11qt_metacastEPKc
FNDA:24,_ZN16pagina_principal11qt_metacastEPKc
FN:149,_ZN16pagina_principal11qt_metacallEN11QMetaObject4CallEiPPv
FNDA:38,_ZN16pagina_principal11qt_metacallEN11QMetaObject4CallEiPPv
DA:121,0
DA:123,0
DA:124,0
DA:126,0
DA:127,0
DA:128,0
DA:129,0
DA:130,0
DA:134,0
DA:136,411
DA:138,411
DA:141,24
DA:143,24
DA:144,24
DA:145,0
DA:146,24
DA:149,38
DA:151,38
DA:152,38
DA:153,38
DA:154,0
DA:155,0
DA:156,0
DA:157,0
DA:158,0
DA:159,0
DA:160,0
DA:161,0
DA:163,0
end_of_record
SF:C:
Users
USER
Documents
UFMG
6
teste
testes_tp
build/C:/Qt/6.6.0/mingw_64/include/QtCore/qscopedpointer.h
FN:90,_ZNK14QScopedPointerI11QObjectData21QScopedPointerDeleterIS0_EEptEv
FNDA:0,_ZNK14QScopedPointerI11QObjectData21QScopedPointerDeleterIS0_EEptEv
DA:90,0
DA:92,0
end_of_record
SF:C:
Users
USER
Documents
UFMG
6
teste
testes_tp
build/C:/Qt/Tools/mingw1120_64/lib/gcc/x86_64-w64-mingw32/11.2.0/include/c++/new
FN:174,_ZnwyPv
FNDA:0,_ZnwyPv
FN:180,_ZdlPvS_
FNDA:0,_ZdlPvS_
DA:174,0
DA:175,0
DA:180,0
end_of_record
SF:C:
Users
USER
Documents
UFMG
6
teste
testes_tp
build/C:/Qt/6.6.0/mingw_64/include/QtCore/qmetatype.h
FN:440,_ZN9QMetaTypeC1Ev
FNDA:0,_ZN9QMetaTypeC1Ev
FN:991,_ZN9QtPrivate17MetaObjectForTypeI16pagina_principalvE18metaObjectFunctionEPKNS_18QMetaTypeInterfaceE
FNDA:0,_ZN9QtPrivate17MetaObjectForTypeI16pagina_principalvE18metaObjectFunctionEPKNS_18QMetaTypeInterfaceE
FN:2406,_ZZN9QtPrivate16QMetaTypeForTypeI16pagina_principalE13getDefaultCtrEvENKUlPKNS_18QMetaTypeInterfaceEPvE_clES5_S6_
FNDA:0,_ZZN9QtPrivate16QMetaTypeForTypeI16pagina_principalE13getDefaultCtrEvENKUlPKNS_18QMetaTypeInterfaceEPvE_clES5_S6_
FN:2437,_ZZN9QtPrivate16QMetaTypeForTypeI16pagina_principalE7getDtorEvENKUlPKNS_18QMetaTypeInterfaceEPvE_clES5_S6_
FNDA:0,_ZZN9QtPrivate16QMetaTypeForTypeI16pagina_principalE7getDtorEvENKUlPKNS_18QMetaTypeInterfaceEPvE_clES5_S6_
DA:440,0
DA:991,0
DA:2406,0
DA:2437,0
DA:2438,0
end_of_record
TN:
SF:C:
Users
USER
Documents
UFMG
6
teste
testes_tp
build/C:/Qt/Tools/mingw1120_64/lib/gcc/x86_64-w64-mingw32/11.2.0/include/c++/new
FN:174,_ZnwyPv
FNDA:0,_ZnwyPv
FN:180,_ZdlPvS_
FNDA:0,_ZdlPvS_
DA:174,0
DA:175,0
DA:180,0
end_of_record
SF:C:
Users
USER
Documents
UFMG
6
teste
testes_tp
build/debug
moc_perfil_de_usuario.cpp
FN:105,_ZN17perfil_de_usuario18qt_static_metacallEP7QObjectN11QMetaObject4CallEiPPv
FNDA:0,_ZN17perfil_de_usuario18qt_static_metacallEP7QObjectN11QMetaObject4CallEiPPv
FN:118,_ZNK17perfil_de_usuario10metaObjectEv
FNDA:180,_ZNK17perfil_de_usuario10metaObjectEv
FN:123,_ZN17perfil_de_usuario11qt_metacastEPKc
FNDA:8,_ZN17perfil_de_usuario11qt_metacastEPKc
FN:131,_ZN17perfil_de_usuario11qt_metacallEN11QMetaObject4CallEiPPv
FNDA:37,_ZN17perfil_de_usuario11qt_metacallEN11QMetaObject4CallEiPPv
DA:105,0
DA:107,0
DA:108,0
DA:110,0
DA:111,0
DA:112,0
DA:116,0
DA:118,180
DA:120,180
DA:123,8
DA:125,8
DA:126,8
DA:127,0
DA:128,8
DA:131,37
DA:133,37
DA:134,37
DA:135,37
DA:136,0
DA:137,0
DA:138,0
DA:139,0
DA:140,0
DA:141,0
DA:142,0
DA:143,0
DA:145,0
end_of_record
SF:C:
Users
USER
Documents
UFMG
6
teste
testes_tp
build/C:/Qt/6.6.0/mingw_64/include/QtCore/qscopedpointer.h
FN:90,_ZNK14QScopedPointerI11QObjectData21QScopedPointerDeleterIS0_EEptEv
FNDA:0,_ZNK14QScopedPointerI11QObjectData21QScopedPointerDeleterIS0_EEptEv
DA:90,0
DA:92,0
end_of_record
SF:C:
Users
USER
Documents
UFMG
6
teste
testes_tp
build/C:/Qt/6.6.0/mingw_64/include/QtCore/qmetatype.h
FN:440,_ZN9QMetaTypeC1Ev
FNDA:0,_ZN9QMetaTypeC1Ev
FN:991,_ZN9QtPrivate17MetaObjectForTypeI17perfil_de_usuariovE18metaObjectFunctionEPKNS_18QMetaTypeInterfaceE
FNDA:0,_ZN9QtPrivate17MetaObjectForTypeI17perfil_de_usuariovE18metaObjectFunctionEPKNS_18QMetaTypeInterfaceE
FN:2406,_ZZN9QtPrivate16QMetaTypeForTypeI17perfil_de_usuarioE13getDefaultCtrEvENKUlPKNS_18QMetaTypeInterfaceEPvE_clES5_S6_
FNDA:0,_ZZN9QtPrivate16QMetaTypeForTypeI17perfil_de_usuarioE13getDefaultCtrEvENKUlPKNS_18QMetaTypeInterfaceEPvE_clES5_S6_
FN:2437,_ZZN9QtPrivate16QMetaTypeForTypeI17perfil_de_usuarioE7getDtorEvENKUlPKNS_18QMetaTypeInterfaceEPvE_clES5_S6_
FNDA:0,_ZZN9QtPrivate16QMetaTypeForTypeI17perfil_de_usuarioE7getDtorEvENKUlPKNS_18QMetaTypeInterfaceEPvE_clES5_S6_
DA:440,0
DA:991,0
DA:2406,0
DA:2437,0
DA:2438,0
end_of_record
SF:C:
Users
USER
Documents
UFMG
6
teste
testes_tp
build/C:/Qt/6.6.0/mingw_64/include/QtCore/qobjectdefs.h
FN:484,_ZN11QMetaObject16staticMetaObjectIL_ZN7QDialog16staticMetaObjectEEEEPKS_v
FNDA:0,_ZN11QMetaObject16staticMetaObjectIL_ZN7QDialog16staticMetaObjectEEEEPKS_v
DA:484,0
DA:486,0
end_of_record
TN:
SF:C:
Users
USER
Documents
UFMG
6
teste
testes_tp
build/C:/Qt/Tools/mingw1120_64/lib/gcc/x86_64-w64-mingw32/11.2.0/include/c++/new
FN:174,_ZnwyPv
FNDA:0,_ZnwyPv
FN:180,_ZdlPvS_
FNDA:0,_ZdlPvS_
DA:174,0
DA:175,0
DA:180,0
end_of_record
SF:C:
Users
USER
Documents
UFMG
6
teste
testes_tp
build/debug
moc_pesquisar_na_agenda.cpp
FN:137,_ZN19pesquisar_na_agenda18qt_static_metacallEP7QObjectN11QMetaObject4CallEiPPv
FNDA:3,_ZN19pesquisar_na_agenda18qt_static_metacallEP7QObjectN11QMetaObject4CallEiPPv
FN:154,_ZNK19pesquisar_na_agenda10metaObjectEv
FNDA:1510,_ZNK19pesquisar_na_agenda10metaObjectEv
FN:159,_ZN19pesquisar_na_agenda11qt_metacastEPKc
FNDA:37,_ZN19pesquisar_na_agenda11qt_metacastEPKc
FN:167,_ZN19pesquisar_na_agenda11qt_metacallEN11QMetaObject4CallEiPPv
FNDA:471,_ZN19pesquisar_na_agenda11qt_metacallEN11QMetaObject4CallEiPPv
DA:137,3
DA:139,3
DA:140,3
DA:142,3
DA:143,1
DA:144,0
DA:145,2
DA:146,0
DA:147,0
DA:148,3
DA:152,3
DA:154,1510
DA:156,1510
DA:159,37
DA:161,37
DA:162,37
DA:163,0
DA:164,37
DA:167,471
DA:169,471
DA:170,471
DA:171,468
DA:172,3
DA:173,3
DA:174,3
DA:175,3
DA:176,0
DA:177,0
DA:178,0
DA:179,0
DA:181,3
end_of_record
SF:C:
Users
USER
Documents
UFMG
6
teste
testes_tp
build/C:/Qt/6.6.0/mingw_64/include/QtCore/qscopedpointer.h
FN:90,_ZNK14QScopedPointerI11QObjectData21QScopedPointerDeleterIS0_EEptEv
FNDA:0,_ZNK14QScopedPointerI11QObjectData21QScopedPointerDeleterIS0_EEptEv
DA:90,0
DA:92,0
end_of_record
SF:C:
Users
USER
Documents
UFMG
6
teste
testes_tp
build/C:/Qt/6.6.0/mingw_64/include/QtCore/qmetatype.h
FN:440,_ZN9QMetaTypeC1Ev
FNDA:0,_ZN9QMetaTypeC1Ev
FN:991,_ZN9QtPrivate17MetaObjectForTypeI19pesquisar_na_agendavE18metaObjectFunctionEPKNS_18QMetaTypeInterfaceE
FNDA:0,_ZN9QtPrivate17MetaObjectForTypeI19pesquisar_na_agendavE18metaObjectFunctionEPKNS_18QMetaTypeInterfaceE
FN:2406,_ZZN9QtPrivate16QMetaTypeForTypeI19pesquisar_na_agendaE13getDefaultCtrEvENKUlPKNS_18QMetaTypeInterfaceEPvE_clES5_S6_
FNDA:0,_ZZN9QtPrivate16QMetaTypeForTypeI19pesquisar_na_agendaE13getDefaultCtrEvENKUlPKNS_18QMetaTypeInterfaceEPvE_clES5_S6_
FN:2437,_ZZN9QtPrivate16QMetaTypeForTypeI19pesquisar_na_agendaE7getDtorEvENKUlPKNS_18QMetaTypeInterfaceEPvE_clES5_S6_
FNDA:0,_ZZN9QtPrivate16QMetaTypeForTypeI19pesquisar_na_agendaE7getDtorEvENKUlPKNS_18QMetaTypeInterfaceEPvE_clES5_S6_
DA:440,0
DA:991,0
DA:2406,0
DA:2437,0
DA:2438,0
end_of_record
SF:C:
Users
USER
Documents
UFMG
6
teste
testes_tp
build/C:/Qt/6.6.0/mingw_64/include/QtCore/qobjectdefs.h
FN:484,_ZN11QMetaObject16staticMetaObjectIL_ZN7QDialog16staticMetaObjectEEEEPKS_v
FNDA:0,_ZN11QMetaObject16staticMetaObjectIL_ZN7QDialog16staticMetaObjectEEEEPKS_v
DA:484,0
DA:486,0
end_of_record
TN:
SF:C:
Users
USER
Documents
UFMG
6
teste
testes_tp
build/..
pagina_principal.cpp
FN:4,_ZN16pagina_principalC2EP7QWidget
FNDA:4,_ZN16pagina_principalC2EP7QWidget
FN:11,_ZN16pagina_principalD0Ev
FNDA:0,_ZN16pagina_principalD0Ev
FN:11,_ZN16pagina_principalD2Ev
FNDA:4,_ZN16pagina_principalD2Ev
FN:16,_ZN16pagina_principal27on_adicionarcontato_clickedEv
FNDA:0,_ZN16pagina_principal27on_adicionarcontato_clickedEv
FN:23,_ZN16pagina_principal20on_veragenda_clickedEv
FNDA:0,_ZN16pagina_principal20on_veragenda_clickedEv
FN:30,_ZN16pagina_principal13passa_usuarioE7QString
FNDA:0,_ZN16pagina_principal13passa_usuarioE7QString
FN:36,_ZN16pagina_principal11passa_senhaE7QString
FNDA:1,_ZN16pagina_principal11passa_senhaE7QString
FN:42,_ZN16pagina_principal20on_verperfil_clickedEv
FNDA:0,_ZN16pagina_principal20on_verperfil_clickedEv
DA:4,4
DA:6,4
DA:8,4
DA:9,4
DA:11,0
DA:14,0
DA:11,4
DA:13,4
DA:14,4
DA:16,0
DA:18,0
DA:19,0
DA:20,0
DA:23,0
DA:25,0
DA:26,0
DA:27,0
DA:30,0
DA:32,0
DA:33,0
DA:36,1
DA:38,1
DA:39,1
DA:42,0
DA:43,0
DA:44,0
DA:45,0
DA:46,0
DA:47,0
end_of_record
SF:C:
Users
USER
Documents
UFMG
6
teste
testes_tp
build/C:/Qt/Tools/mingw1120_64/lib/gcc/x86_64-w64-mingw32/11.2.0/include/c++/bits/stl_iterator_base_types.h
FN:238,_ZSt19__iterator_categoryIPKcENSt15iterator_traitsIT_E17iterator_categoryERKS3_
FNDA:0,_ZSt19__iterator_categoryIPKcENSt15iterator_traitsIT_E17iterator_categoryERKS3_
DA:238,0
DA:239,0
end_of_record
SF:C:
Users
USER
Documents
UFMG
6
teste
testes_tp
build/C:/Qt/6.6.0/mingw_64/include/QtCore/qbasicatomic.h
FN:38,_ZNK19QBasicAtomicIntegerIiE11loadRelaxedEv
FNDA:0,_ZNK19QBasicAtomicIntegerIiE11loadRelaxedEv
FN:49,_ZN19QBasicAtomicIntegerIiE3refEv
FNDA:0,_ZN19QBasicAtomicIntegerIiE3refEv
FN:50,_ZN19QBasicAtomicIntegerIiE5derefEv
FNDA:0,_ZN19QBasicAtomicIntegerIiE5derefEv
DA:38,0
DA:49,0
DA:50,0
end_of_record
SF:C:
Users
USER
Documents
UFMG
6
teste
testes_tp
build/C:/Qt/6.6.0/mingw_64/include/QtCore/qarraydataops.h
FN:95,_ZN9QtPrivate12QPodArrayOpsIDsE10destroyAllEv
FNDA:0,_ZN9QtPrivate12QPodArrayOpsIDsE10destroyAllEv
DA:95,0
DA:97,0
DA:98,0
DA:102,0
end_of_record
SF:C:
Users
USER
Documents
UFMG
6
teste
testes_tp
build/C:/Qt/6.6.0/mingw_64/include/QtCore/qanystringview.h
FN:101,_ZN14QAnyStringView29isAsciiOnlyCharsAtCompileTimeIKcEEbPT_x
FNDA:0,_ZN14QAnyStringView29isAsciiOnlyCharsAtCompileTimeIKcEEbPT_x
FN:131,_ZN14QAnyStringView10encodeTypeIcEEyPKT_x
FNDA:0,_ZN14QAnyStringView10encodeTypeIcEEyPKT_x
FN:166,_ZN14QAnyStringView21lengthHelperContainerIcLy8EEExRAT0__KT_
FNDA:0,_ZN14QAnyStringView21lengthHelperContainerIcLy8EEExRAT0__KT_
FN:166,_ZN14QAnyStringView21lengthHelperContainerIcLy6EEExRAT0__KT_
FNDA:0,_ZN14QAnyStringView21lengthHelperContainerIcLy6EEExRAT0__KT_
FN:166,_ZN14QAnyStringView21lengthHelperContainerIcLy17EEExRAT0__KT_
FNDA:0,_ZN14QAnyStringView21lengthHelperContainerIcLy17EEExRAT0__KT_
FN:166,_ZN14QAnyStringView21lengthHelperContainerIcLy10EEExRAT0__KT_
FNDA:0,_ZN14QAnyStringView21lengthHelperContainerIcLy10EEExRAT0__KT_
FN:186,_ZN14QAnyStringViewC1IcLb1EEEPKT_x
FNDA:0,_ZN14QAnyStringViewC1IcLb1EEEPKT_x
FN:214,_ZN14QAnyStringViewC1IA8_cLb1EEERKT_
FNDA:0,_ZN14QAnyStringViewC1IA8_cLb1EEERKT_
FN:214,_ZN14QAnyStringViewC1IA6_cLb1EEERKT_
FNDA:0,_ZN14QAnyStringViewC1IA6_cLb1EEERKT_
FN:214,_ZN14QAnyStringViewC1IA17_cLb1EEERKT_
FNDA:0,_ZN14QAnyStringViewC1IA17_cLb1EEERKT_
FN:214,_ZN14QAnyStringViewC1IA10_cLb1EEERKT_
FNDA:0,_ZN14QAnyStringViewC1IA10_cLb1EEERKT_
DA:101,0
DA:114,0
DA:131,0
DA:134,0
DA:135,0
DA:136,0
DA:137,0
DA:139,0
DA:166,0
DA:168,0
DA:169,0
DA:170,0
DA:166,0
DA:168,0
DA:169,0
DA:170,0
DA:166,0
DA:168,0
DA:169,0
DA:170,0
DA:166,0
DA:168,0
DA:169,0
DA:170,0
DA:186,0
DA:187,0
DA:189,0
DA:214,0
DA:215,0
DA:214,0
DA:215,0
DA:214,0
DA:215,0
DA:214,0
DA:215,0
end_of_record
SF:C:
Users
USER
Documents
UFMG
6
teste
testes_tp
build/C:/Qt/6.6.0/mingw_64/include/QtWidgets/qwidget.h
FN:883,_ZN7QWidget6resizeEii
FNDA:0,_ZN7QWidget6resizeEii
DA:883,0
DA:884,0
end_of_record
SF:C:
Users
USER
Documents
UFMG
6
teste
testes_tp
build/C:/Qt/Tools/mingw1120_64/lib/gcc/x86_64-w64-mingw32/11.2.0/include/c++/bits/range_access.h
FN:310,_ZSt4dataIKcLy8EEPT_RAT0__S1_
FNDA:0,_ZSt4dataIKcLy8EEPT_RAT0__S1_
FN:310,_ZSt4dataIKcLy6EEPT_RAT0__S1_
FNDA:0,_ZSt4dataIKcLy6EEPT_RAT0__S1_
FN:310,_ZSt4dataIKcLy17EEPT_RAT0__S1_
FNDA:0,_ZSt4dataIKcLy17EEPT_RAT0__S1_
FN:310,_ZSt4dataIKcLy10EEPT_RAT0__S1_
FNDA:0,_ZSt4dataIKcLy10EEPT_RAT0__S1_
DA:310,0
DA:311,0
DA:310,0
DA:311,0
DA:310,0
DA:311,0
DA:310,0
DA:311,0
end_of_record
SF:C:
Users
USER
Documents
UFMG
6
teste
testes_tp
build/C:/Qt/6.6.0/mingw_64/include/QtCore/qrect.h
FN:154,_ZN5QRectC1Eiiii
FNDA:0,_ZN5QRectC1Eiiii
DA:154,0
DA:155,0
end_of_record
SF:C:
Users
USER
Documents
UFMG
6
teste
testes_tp
build/..
pagina_principal.h
end_of_record
SF:C:
Users
USER
Documents
UFMG
6
teste
testes_tp
build/C:/Qt/6.6.0/mingw_64/include/QtCore/qarraydata.h
FN:49,_ZN10QArrayData3refEv
FNDA:0,_ZN10QArrayData3refEv
FN:56,_ZN10QArrayData5derefEv
FNDA:0,_ZN10QArrayData5derefEv
DA:49,0
DA:51,0
DA:52,0
DA:56,0
DA:58,0
end_of_record
SF:C:
Users
USER
Documents
UFMG
6
teste
testes_tp
build/C:/Qt/6.6.0/mingw_64/include/QtCore/qatomic_cxx11.h
FN:199,_ZN10QAtomicOpsIiE11loadRelaxedIiEET_RKSt6atomicIS2_E
FNDA:0,_ZN10QAtomicOpsIiE11loadRelaxedIiEET_RKSt6atomicIS2_E
FN:243,_ZN10QAtomicOpsIiE3refIiEEbRSt6atomicIT_E
FNDA:0,_ZN10QAtomicOpsIiE3refIiEEbRSt6atomicIT_E
FN:262,_ZN10QAtomicOpsIiE5derefIiEEbRSt6atomicIT_E
FNDA:0,_ZN10QAtomicOpsIiE5derefIiEEbRSt6atomicIT_E
DA:199,0
DA:201,0
DA:243,0
DA:258,0
DA:262,0
DA:265,0
end_of_record
SF:C:
Users
USER
Documents
UFMG
6
teste
testes_tp
build/C:/Qt/6.6.0/mingw_64/include/QtCore/qflags.h
FN:73,_ZN6QFlagsIN2Qt10WindowTypeEEC1Ev
FNDA:0,_ZN6QFlagsIN2Qt10WindowTypeEEC1Ev
DA:73,0
end_of_record
SF:C:
Users
USER
Documents
UFMG
6
teste
testes_tp
build/C:/Qt/Tools/mingw1120_64/lib/gcc/x86_64-w64-mingw32/11.2.0/include/c++/bits/stl_iterator_base_funcs.h
FN:98,_ZSt10__distanceIPKcENSt15iterator_traitsIT_E15difference_typeES3_S3_St26random_access_iterator_tag
FNDA:0,_ZSt10__distanceIPKcENSt15iterator_traitsIT_E15difference_typeES3_S3_St26random_access_iterator_tag
FN:138,_ZSt8distanceIPKcENSt15iterator_traitsIT_E15difference_typeES3_S3_
FNDA:0,_ZSt8distanceIPKcENSt15iterator_traitsIT_E15difference_typeES3_S3_
FN:174,_ZSt9__advanceIPKcxEvRT_T0_St26random_access_iterator_tag
FNDA:0,_ZSt9__advanceIPKcxEvRT_T0_St26random_access_iterator_tag
FN:202,_ZSt7advanceIPKcxEvRT_T0_
FNDA:0,_ZSt7advanceIPKcxEvRT_T0_
FN:213,_ZSt4nextIPKcET_S2_NSt15iterator_traitsIS2_E15difference_typeE
FNDA:0,_ZSt4nextIPKcET_S2_NSt15iterator_traitsIS2_E15difference_typeE
DA:98,0
DA:104,0
DA:138,0
DA:141,0
DA:142,0
DA:174,0
DA:185,0
DA:186,0
DA:202,0
DA:205,0
DA:206,0
DA:207,0
DA:213,0
DA:218,0
DA:219,0
end_of_record
SF:C:
Users
USER
Documents
UFMG
6
teste
testes_tp
build/C:/Qt/6.6.0/mingw_64/include/QtCore/qbytearrayview.h
FN:116,_ZN14QByteArrayView21lengthHelperCharArrayEPKcy
FNDA:0,_ZN14QByteArrayView21lengthHelperCharArrayEPKcy
FN:126,_ZN14QByteArrayView10castHelperEPKc
FNDA:0,_ZN14QByteArrayView10castHelperEPKc
FN:136,_ZN14QByteArrayViewC1IcLb1EEEPKT_x
FNDA:0,_ZN14QByteArrayViewC1IcLb1EEEPKT_x
FN:166,_ZN14QByteArrayViewC1ILy137EEERAT__Kc
FNDA:8,_ZN14QByteArrayViewC1ILy137EEERAT__Kc
FN:166,_ZN14QByteArrayViewC1ILy135EEERAT__Kc
FNDA:0,_ZN14QByteArrayViewC1ILy135EEERAT__Kc
FN:166,_ZN14QByteArrayViewC1ILy221EEERAT__Kc
FNDA:0,_ZN14QByteArrayViewC1ILy221EEERAT__Kc
DA:116,0
DA:118,0
DA:119,0
DA:120,0
DA:126,0
DA:127,0
DA:136,0
DA:137,0
DA:138,0
DA:166,8
DA:167,8
DA:166,0
DA:167,0
DA:166,0
DA:167,0
end_of_record
SF:C:
Users
USER
Documents
UFMG
6
teste
testes_tp
build/C:/Qt/6.6.0/mingw_64/include/QtCore/qstring.h
FN:178,_ZN7QStringC1EOS_
FNDA:0,_ZN7QStringC1EOS_
FN:188,_ZNK7QString7isEmptyEv
FNDA:0,_ZNK7QString7isEmptyEv
FN:1107,_ZN7QStringC1ERKS_
FNDA:0,_ZN7QStringC1ERKS_
FN:1168,_ZN7QStringC1Ev
FNDA:0,_ZN7QStringC1Ev
FN:1169,_ZN7QStringD1Ev
FNDA:0,_ZN7QStringD1Ev
DA:178,0
DA:188,0
DA:1107,0
DA:1108,0
DA:1168,0
DA:1169,0
end_of_record
SF:C:
Users
USER
Documents
UFMG
6
teste
testes_tp
build/C:/Qt/Tools/mingw1120_64/lib/gcc/x86_64-w64-mingw32/11.2.0/include/c++/bits/atomic_base.h
FN:104,_ZStanSt12memory_orderSt23__memory_order_modifier
FNDA:0,_ZStanSt12memory_orderSt23__memory_order_modifier
DA:104,0
DA:106,0
DA:477,0
DA:481,0
DA:636,0
DA:646,0
end_of_record
SF:C:
Users
USER
Documents
UFMG
6
teste
testes_tp
build/ui_pagina_principal.h
FN:29,_ZN19Ui_pagina_principal7setupUiEP7QDialog
FNDA:4,_ZN19Ui_pagina_principal7setupUiEP7QDialog
FN:85,_ZN19Ui_pagina_principal13retranslateUiEP7QDialog
FNDA:4,_ZN19Ui_pagina_principal13retranslateUiEP7QDialog
DA:29,4
DA:31,4
DA:32,4
DA:33,4
DA:34,4
DA:35,4
DA:36,4
DA:37,4
DA:38,4
DA:43,4
DA:44,4
DA:45,4
DA:46,4
DA:51,4
DA:52,4
DA:53,4
DA:54,4
DA:59,4
DA:60,4
DA:61,4
DA:62,4
DA:63,4
DA:69,4
DA:70,4
DA:71,4
DA:72,4
DA:73,4
DA:80,4
DA:82,4
DA:83,4
DA:85,4
DA:87,4
DA:88,4
DA:89,4
DA:90,4
DA:91,4
DA:92,4
DA:93,4
end_of_record
SF:C:
Users
USER
Documents
UFMG
6
teste
testes_tp
build/C:/Qt/Tools/mingw1120_64/lib/gcc/x86_64-w64-mingw32/11.2.0/include/c++/bits/char_traits.h
FN:106,_ZN9__gnu_cxx11char_traitsIcE2eqERKcS3_
FNDA:0,_ZN9__gnu_cxx11char_traitsIcE2eqERKcS3_
FN:178,_ZN9__gnu_cxx11char_traitsIcE4findEPKcyRS2_
FNDA:0,_ZN9__gnu_cxx11char_traitsIcE4findEPKcyRS2_
FN:375,_ZNSt11char_traitsIcE4findEPKcyRS1_
FNDA:0,_ZNSt11char_traitsIcE4findEPKcyRS1_
DA:106,0
DA:107,0
DA:178,0
DA:181,0
DA:182,0
DA:183,0
DA:184,0
DA:375,0
DA:377,0
DA:378,0
DA:380,0
DA:382,0
DA:383,0
DA:385,0
end_of_record
SF:C:
Users
USER
Documents
UFMG
6
teste
testes_tp
build/C:/Qt/6.6.0/mingw_64/include/QtCore/qarraydatapointer.h
FN:31,_ZN17QArrayDataPointerIDsEC1Ev
FNDA:0,_ZN17QArrayDataPointerIDsEC1Ev
FN:37,_ZN17QArrayDataPointerIDsEC1ERKS0_
FNDA:0,_ZN17QArrayDataPointerIDsEC1ERKS0_
FN:70,_ZN17QArrayDataPointerIDsEC1EOS0_
FNDA:0,_ZN17QArrayDataPointerIDsEC1EOS0_
FN:85,_ZN17QArrayDataPointerIDsEptEv
FNDA:0,_ZN17QArrayDataPointerIDsEptEv
FN:100,_ZN17QArrayDataPointerIDsED1Ev
FNDA:0,_ZN17QArrayDataPointerIDsED1Ev
FN:412,_ZN17QArrayDataPointerIDsE3refEv
FNDA:0,_ZN17QArrayDataPointerIDsE3refEv
FN:413,_ZN17QArrayDataPointerIDsE5derefEv
FNDA:0,_ZN17QArrayDataPointerIDsE5derefEv
DA:31,0
DA:32,0
DA:34,0
DA:37,0
DA:38,0
DA:40,0
DA:41,0
DA:70,0
DA:71,0
DA:73,0
DA:74,0
DA:75,0
DA:76,0
DA:85,0
DA:87,0
DA:100,0
DA:102,0
DA:103,0
DA:104,0
DA:106,0
DA:412,0
DA:413,0
end_of_record
SF:C:
Users
USER
Documents
UFMG
6
teste
testes_tp
build/C:/Qt/6.6.0/mingw_64/include/QtCore/qsize.h
FN:118,_ZN5QSizeC1Eii
FNDA:0,_ZN5QSizeC1Eii
DA:118,0
end_of_record
TN:
SF:C:
Users
USER
Documents
UFMG
6
teste
testes_tp
build/C:/Qt/6.6.0/mingw_64/include/QtCore/qbasicatomic.h
FN:38,_ZNK19QBasicAtomicIntegerIiE11loadRelaxedEv
FNDA:0,_ZNK19QBasicAtomicIntegerIiE11loadRelaxedEv
FN:50,_ZN19QBasicAtomicIntegerIiE5derefEv
FNDA:0,_ZN19QBasicAtomicIntegerIiE5derefEv
DA:38,0
DA:50,0
end_of_record
SF:C:
Users
USER
Documents
UFMG
6
teste
testes_tp
build/C:/Qt/Tools/mingw1120_64/lib/gcc/x86_64-w64-mingw32/11.2.0/include/c++/bits/stl_iterator_base_types.h
FN:238,_ZSt19__iterator_categoryIPKcENSt15iterator_traitsIT_E17iterator_categoryERKS3_
FNDA:0,_ZSt19__iterator_categoryIPKcENSt15iterator_traitsIT_E17iterator_categoryERKS3_
DA:238,0
DA:239,0
end_of_record
SF:C:
Users
USER
Documents
UFMG
6
teste
testes_tp
build/C:/Qt/6.6.0/mingw_64/include/QtCore/qarraydataops.h
FN:95,_ZN9QtPrivate12QPodArrayOpsIDsE10destroyAllEv
FNDA:0,_ZN9QtPrivate12QPodArrayOpsIDsE10destroyAllEv
DA:95,0
DA:97,0
DA:98,0
DA:102,0
end_of_record
SF:C:
Users
USER
Documents
UFMG
6
teste
testes_tp
build/..
perfil_de_usuario.h
end_of_record
SF:C:
Users
USER
Documents
UFMG
6
teste
testes_tp
build/C:/Qt/6.6.0/mingw_64/include/QtWidgets/qwidget.h
FN:883,_ZN7QWidget6resizeEii
FNDA:0,_ZN7QWidget6resizeEii
DA:883,0
DA:884,0
end_of_record
SF:C:
Users
USER
Documents
UFMG
6
teste
testes_tp
build/C:/Qt/Tools/mingw1120_64/lib/gcc/x86_64-w64-mingw32/11.2.0/include/c++/bits/range_access.h
FN:310,_ZSt4dataIKcLy7EEPT_RAT0__S1_
FNDA:10,_ZSt4dataIKcLy7EEPT_RAT0__S1_
FN:310,_ZSt4dataIKcLy6EEPT_RAT0__S1_
FNDA:0,_ZSt4dataIKcLy6EEPT_RAT0__S1_
FN:310,_ZSt4dataIKcLy11EEPT_RAT0__S1_
FNDA:4,_ZSt4dataIKcLy11EEPT_RAT0__S1_
FN:310,_ZSt4dataIKcLy8EEPT_RAT0__S1_
FNDA:0,_ZSt4dataIKcLy8EEPT_RAT0__S1_
FN:310,_ZSt4dataIKcLy20EEPT_RAT0__S1_
FNDA:18,_ZSt4dataIKcLy20EEPT_RAT0__S1_
FN:310,_ZSt4dataIKcLy17EEPT_RAT0__S1_
FNDA:0,_ZSt4dataIKcLy17EEPT_RAT0__S1_
FN:310,_ZSt4dataIKcLy15EEPT_RAT0__S1_
FNDA:0,_ZSt4dataIKcLy15EEPT_RAT0__S1_
FN:310,_ZSt4dataIKcLy18EEPT_RAT0__S1_
FNDA:0,_ZSt4dataIKcLy18EEPT_RAT0__S1_
DA:310,10
DA:311,10
DA:310,0
DA:311,0
DA:310,4
DA:311,4
DA:310,0
DA:311,0
DA:310,18
DA:311,18
DA:310,0
DA:311,0
DA:310,0
DA:311,0
DA:310,0
DA:311,0
end_of_record
SF:C:
Users
USER
Documents
UFMG
6
teste
testes_tp
build/C:/Qt/6.6.0/mingw_64/include/QtCore/qanystringview.h
FN:101,_ZN14QAnyStringView29isAsciiOnlyCharsAtCompileTimeIKcEEbPT_x
FNDA:0,_ZN14QAnyStringView29isAsciiOnlyCharsAtCompileTimeIKcEEbPT_x
FN:131,_ZN14QAnyStringView10encodeTypeIcEEyPKT_x
FNDA:0,_ZN14QAnyStringView10encodeTypeIcEEyPKT_x
FN:166,_ZN14QAnyStringView21lengthHelperContainerIcLy8EEExRAT0__KT_
FNDA:0,_ZN14QAnyStringView21lengthHelperContainerIcLy8EEExRAT0__KT_
FN:166,_ZN14QAnyStringView21lengthHelperContainerIcLy18EEExRAT0__KT_
FNDA:0,_ZN14QAnyStringView21lengthHelperContainerIcLy18EEExRAT0__KT_
FN:166,_ZN14QAnyStringView21lengthHelperContainerIcLy15EEExRAT0__KT_
FNDA:0,_ZN14QAnyStringView21lengthHelperContainerIcLy15EEExRAT0__KT_
FN:166,_ZN14QAnyStringView21lengthHelperContainerIcLy17EEExRAT0__KT_
FNDA:0,_ZN14QAnyStringView21lengthHelperContainerIcLy17EEExRAT0__KT_
FN:166,_ZN14QAnyStringView21lengthHelperContainerIcLy20EEExRAT0__KT_
FNDA:18,_ZN14QAnyStringView21lengthHelperContainerIcLy20EEExRAT0__KT_
FN:166,_ZN14QAnyStringView21lengthHelperContainerIcLy11EEExRAT0__KT_
FNDA:4,_ZN14QAnyStringView21lengthHelperContainerIcLy11EEExRAT0__KT_
FN:166,_ZN14QAnyStringView21lengthHelperContainerIcLy6EEExRAT0__KT_
FNDA:0,_ZN14QAnyStringView21lengthHelperContainerIcLy6EEExRAT0__KT_
FN:166,_ZN14QAnyStringView21lengthHelperContainerIcLy7EEExRAT0__KT_
FNDA:10,_ZN14QAnyStringView21lengthHelperContainerIcLy7EEExRAT0__KT_
FN:186,_ZN14QAnyStringViewC1IcLb1EEEPKT_x
FNDA:0,_ZN14QAnyStringViewC1IcLb1EEEPKT_x
FN:214,_ZN14QAnyStringViewC1IA8_cLb1EEERKT_
FNDA:0,_ZN14QAnyStringViewC1IA8_cLb1EEERKT_
FN:214,_ZN14QAnyStringViewC1IA11_cLb1EEERKT_
FNDA:4,_ZN14QAnyStringViewC1IA11_cLb1EEERKT_
FN:214,_ZN14QAnyStringViewC1IA20_cLb1EEERKT_
FNDA:18,_ZN14QAnyStringViewC1IA20_cLb1EEERKT_
FN:214,_ZN14QAnyStringViewC1IA17_cLb1EEERKT_
FNDA:0,_ZN14QAnyStringViewC1IA17_cLb1EEERKT_
FN:214,_ZN14QAnyStringViewC1IA6_cLb1EEERKT_
FNDA:0,_ZN14QAnyStringViewC1IA6_cLb1EEERKT_
FN:214,_ZN14QAnyStringViewC1IA15_cLb1EEERKT_
FNDA:0,_ZN14QAnyStringViewC1IA15_cLb1EEERKT_
FN:214,_ZN14QAnyStringViewC1IA18_cLb1EEERKT_
FNDA:0,_ZN14QAnyStringViewC1IA18_cLb1EEERKT_
FN:214,_ZN14QAnyStringViewC1IA7_cLb1EEERKT_
FNDA:10,_ZN14QAnyStringViewC1IA7_cLb1EEERKT_
DA:101,0
DA:114,0
DA:131,0
DA:134,0
DA:135,0
DA:136,0
DA:137,0
DA:139,0
DA:166,10
DA:168,10
DA:169,10
DA:170,10
DA:166,0
DA:168,0
DA:169,0
DA:170,0
DA:166,4
DA:168,4
DA:169,4
DA:170,4
DA:166,0
DA:168,0
DA:169,0
DA:170,0
DA:166,18
DA:168,18
DA:169,18
DA:170,18
DA:166,0
DA:168,0
DA:169,0
DA:170,0
DA:166,0
DA:168,0
DA:169,0
DA:170,0
DA:166,0
DA:168,0
DA:169,0
DA:170,0
DA:186,0
DA:187,0
DA:189,0
DA:214,10
DA:215,10
DA:214,0
DA:215,0
DA:214,4
DA:215,4
DA:214,0
DA:215,0
DA:214,18
DA:215,18
DA:214,0
DA:215,0
DA:214,0
DA:215,0
DA:214,0
DA:215,0
end_of_record
SF:C:
Users
USER
Documents
UFMG
6
teste
testes_tp
build/ui_perfil_de_usuario.h
FN:41,_ZN20Ui_perfil_de_usuario7setupUiEP7QDialog
FNDA:4,_ZN20Ui_perfil_de_usuario7setupUiEP7QDialog
FN:141,_ZN20Ui_perfil_de_usuario13retranslateUiEP7QDialog
FNDA:4,_ZN20Ui_perfil_de_usuario13retranslateUiEP7QDialog
DA:41,4
DA:43,4
DA:44,4
DA:45,4
DA:46,4
DA:49,4
DA:50,4
DA:51,4
DA:52,4
DA:53,4
DA:54,4
DA:55,4
DA:56,4
DA:57,4
DA:58,4
DA:59,4
DA:60,4
DA:61,4
DA:66,4
DA:68,4
DA:69,4
DA:70,4
DA:72,4
DA:74,4
DA:77,4
DA:79,4
DA:80,4
DA:81,4
DA:82,4
DA:83,4
DA:88,4
DA:90,4
DA:91,4
DA:92,4
DA:95,4
DA:98,4
DA:100,4
DA:101,4
DA:102,4
DA:103,4
DA:104,4
DA:109,4
DA:111,4
DA:112,4
DA:113,4
DA:115,4
DA:116,4
DA:118,4
DA:121,4
DA:124,4
DA:126,4
DA:127,4
DA:128,4
DA:133,4
DA:136,4
DA:138,4
DA:139,4
DA:141,4
DA:143,4
DA:144,4
DA:145,4
DA:146,4
DA:147,4
DA:148,4
DA:149,4
end_of_record
SF:C:
Users
USER
Documents
UFMG
6
teste
testes_tp
build/C:/Qt/6.6.0/mingw_64/include/QtCore/qatomic_cxx11.h
FN:199,_ZN10QAtomicOpsIiE11loadRelaxedIiEET_RKSt6atomicIS2_E
FNDA:0,_ZN10QAtomicOpsIiE11loadRelaxedIiEET_RKSt6atomicIS2_E
FN:262,_ZN10QAtomicOpsIiE5derefIiEEbRSt6atomicIT_E
FNDA:0,_ZN10QAtomicOpsIiE5derefIiEEbRSt6atomicIT_E
DA:199,0
DA:201,0
DA:262,0
DA:265,0
end_of_record
SF:C:
Users
USER
Documents
UFMG
6
teste
testes_tp
build/C:/Qt/6.6.0/mingw_64/include/QtCore/qarraydata.h
FN:56,_ZN10QArrayData5derefEv
FNDA:0,_ZN10QArrayData5derefEv
DA:56,0
DA:58,0
end_of_record
SF:C:
Users
USER
Documents
UFMG
6
teste
testes_tp
build/C:/Qt/6.6.0/mingw_64/include/QtCore/qrect.h
FN:154,_ZN5QRectC1Eiiii
FNDA:0,_ZN5QRectC1Eiiii
DA:154,0
DA:155,0
end_of_record
SF:C:
Users
USER
Documents
UFMG
6
teste
testes_tp
build/..
perfil_de_usuario.cpp
FN:4,_ZN17perfil_de_usuarioC2EP7QWidget
FNDA:4,_ZN17perfil_de_usuarioC2EP7QWidget
FN:12,_ZN17perfil_de_usuarioD0Ev
FNDA:0,_ZN17perfil_de_usuarioD0Ev
FN:12,_ZN17perfil_de_usuarioD2Ev
FNDA:4,_ZN17perfil_de_usuarioD2Ev
FN:17,_ZN17perfil_de_usuario14recebe_usuarioE7QString
FNDA:0,_ZN17perfil_de_usuario14recebe_usuarioE7QString
FN:21,_ZN17perfil_de_usuario12recebe_senhaE7QString
FNDA:1,_ZN17perfil_de_usuario12recebe_senhaE7QString
FN:24,_ZN17perfil_de_usuario17on_voltar_clickedEv
FNDA:0,_ZN17perfil_de_usuario17on_voltar_clickedEv
DA:4,4
DA:6,4
DA:8,4
DA:9,4
DA:10,4
DA:12,0
DA:15,0
DA:12,4
DA:14,4
DA:15,4
DA:17,0
DA:18,0
DA:19,0
DA:21,1
DA:22,1
DA:23,1
DA:24,0
DA:26,0
DA:27,0
end_of_record
SF:C:
Users
USER
Documents
UFMG
6
teste
testes_tp
build/C:/Qt/Tools/mingw1120_64/lib/gcc/x86_64-w64-mingw32/11.2.0/include/c++/bits/stl_iterator_base_funcs.h
FN:98,_ZSt10__distanceIPKcENSt15iterator_traitsIT_E15difference_typeES3_S3_St26random_access_iterator_tag
FNDA:0,_ZSt10__distanceIPKcENSt15iterator_traitsIT_E15difference_typeES3_S3_St26random_access_iterator_tag
FN:138,_ZSt8distanceIPKcENSt15iterator_traitsIT_E15difference_typeES3_S3_
FNDA:0,_ZSt8distanceIPKcENSt15iterator_traitsIT_E15difference_typeES3_S3_
FN:174,_ZSt9__advanceIPKcxEvRT_T0_St26random_access_iterator_tag
FNDA:0,_ZSt9__advanceIPKcxEvRT_T0_St26random_access_iterator_tag
FN:202,_ZSt7advanceIPKcxEvRT_T0_
FNDA:0,_ZSt7advanceIPKcxEvRT_T0_
FN:213,_ZSt4nextIPKcET_S2_NSt15iterator_traitsIS2_E15difference_typeE
FNDA:0,_ZSt4nextIPKcET_S2_NSt15iterator_traitsIS2_E15difference_typeE
DA:98,0
DA:104,0
DA:138,0
DA:141,0
DA:142,0
DA:174,0
DA:185,0
DA:186,0
DA:202,0
DA:205,0
DA:206,0
DA:207,0
DA:213,0
DA:218,0
DA:219,0
end_of_record
SF:C:
Users
USER
Documents
UFMG
6
teste
testes_tp
build/C:/Qt/6.6.0/mingw_64/include/QtCore/qflags.h
FN:73,_ZN6QFlagsIN2Qt13AlignmentFlagEEC1Ev
FNDA:0,_ZN6QFlagsIN2Qt13AlignmentFlagEEC1Ev
FN:73,_ZN6QFlagsIN2Qt10WindowTypeEEC1Ev
FNDA:0,_ZN6QFlagsIN2Qt10WindowTypeEEC1Ev
DA:73,0
DA:73,0
end_of_record
SF:C:
Users
USER
Documents
UFMG
6
teste
testes_tp
build/C:/Qt/6.6.0/mingw_64/include/QtCore/qstring.h
FN:188,_ZNK7QString7isEmptyEv
FNDA:0,_ZNK7QString7isEmptyEv
FN:782,_ZN7QStringC1EPKc
FNDA:0,_ZN7QStringC1EPKc
FN:1169,_ZN7QStringD1Ev
FNDA:0,_ZN7QStringD1Ev
DA:188,0
DA:782,0
DA:783,0
DA:784,0
DA:1169,0
end_of_record
SF:C:
Users
USER
Documents
UFMG
6
teste
testes_tp
build/C:/Qt/Tools/mingw1120_64/lib/gcc/x86_64-w64-mingw32/11.2.0/include/c++/bits/atomic_base.h
FN:104,_ZStanSt12memory_orderSt23__memory_order_modifier
FNDA:0,_ZStanSt12memory_orderSt23__memory_order_modifier
DA:104,0
DA:106,0
DA:477,0
DA:481,0
DA:646,0
end_of_record
SF:C:
Users
USER
Documents
UFMG
6
teste
testes_tp
build/C:/Qt/6.6.0/mingw_64/include/QtCore/qbytearrayview.h
FN:67,_ZN9QtPrivateL19lengthHelperPointerIcEExPKT_
FNDA:0,_ZN9QtPrivateL19lengthHelperPointerIcEExPKT_
FN:116,_ZN14QByteArrayView21lengthHelperCharArrayEPKcy
FNDA:0,_ZN14QByteArrayView21lengthHelperCharArrayEPKcy
FN:126,_ZN14QByteArrayView10castHelperEPKc
FNDA:0,_ZN14QByteArrayView10castHelperEPKc
FN:136,_ZN14QByteArrayViewC1IcLb1EEEPKT_x
FNDA:0,_ZN14QByteArrayViewC1IcLb1EEEPKT_x
FN:149,_ZN14QByteArrayViewC1IPKcLb1EEERKT_
FNDA:0,_ZN14QByteArrayViewC1IPKcLb1EEERKT_
FN:166,_ZN14QByteArrayViewC1ILy37EEERAT__Kc
FNDA:12,_ZN14QByteArrayViewC1ILy37EEERAT__Kc
FN:166,_ZN14QByteArrayViewC1ILy98EEERAT__Kc
FNDA:0,_ZN14QByteArrayViewC1ILy98EEERAT__Kc
FN:166,_ZN14QByteArrayViewC1ILy261EEERAT__Kc
FNDA:0,_ZN14QByteArrayViewC1ILy261EEERAT__Kc
DA:67,0
DA:69,0
DA:116,0
DA:118,0
DA:119,0
DA:120,0
DA:126,0
DA:127,0
DA:136,0
DA:137,0
DA:138,0
DA:149,0
DA:151,0
DA:166,12
DA:167,12
DA:166,0
DA:167,0
DA:166,0
DA:167,0
end_of_record
SF:C:
Users
USER
Documents
UFMG
6
teste
testes_tp
build/C:/Qt/Tools/mingw1120_64/lib/gcc/x86_64-w64-mingw32/11.2.0/include/c++/bits/char_traits.h
FN:106,_ZN9__gnu_cxx11char_traitsIcE2eqERKcS3_
FNDA:0,_ZN9__gnu_cxx11char_traitsIcE2eqERKcS3_
FN:167,_ZN9__gnu_cxx11char_traitsIcE6lengthEPKc
FNDA:0,_ZN9__gnu_cxx11char_traitsIcE6lengthEPKc
FN:178,_ZN9__gnu_cxx11char_traitsIcE4findEPKcyRS2_
FNDA:0,_ZN9__gnu_cxx11char_traitsIcE4findEPKcyRS2_
FN:365,_ZNSt11char_traitsIcE6lengthEPKc
FNDA:0,_ZNSt11char_traitsIcE6lengthEPKc
FN:375,_ZNSt11char_traitsIcE4findEPKcyRS1_
FNDA:0,_ZNSt11char_traitsIcE4findEPKcyRS1_
DA:106,0
DA:107,0
DA:167,0
DA:170,0
DA:171,0
DA:172,0
DA:173,0
DA:178,0
DA:181,0
DA:182,0
DA:183,0
DA:184,0
DA:262,0
DA:365,0
DA:368,0
DA:369,0
DA:371,0
DA:375,0
DA:377,0
DA:378,0
DA:380,0
DA:382,0
DA:383,0
DA:385,0
end_of_record
SF:C:
Users
USER
Documents
UFMG
6
teste
testes_tp
build/C:/Qt/6.6.0/mingw_64/include/QtCore/qarraydatapointer.h
FN:85,_ZN17QArrayDataPointerIDsEptEv
FNDA:0,_ZN17QArrayDataPointerIDsEptEv
FN:100,_ZN17QArrayDataPointerIDsED1Ev
FNDA:0,_ZN17QArrayDataPointerIDsED1Ev
FN:413,_ZN17QArrayDataPointerIDsE5derefEv
FNDA:0,_ZN17QArrayDataPointerIDsE5derefEv
DA:85,0
DA:87,0
DA:100,0
DA:102,0
DA:103,0
DA:104,0
DA:106,0
DA:413,0
end_of_record
SF:C:
Users
USER
Documents
UFMG
6
teste
testes_tp
build/C:/Qt/6.6.0/mingw_64/include/QtCore/qsize.h
FN:118,_ZN5QSizeC1Eii
FNDA:0,_ZN5QSizeC1Eii
DA:118,0
end_of_record
TN:
SF:C:
Users
USER
Documents
UFMG
6
teste
testes_tp
build/C:/Qt/6.6.0/mingw_64/include/QtCore/qbasicatomic.h
FN:38,_ZNK19QBasicAtomicIntegerIiE11loadRelaxedEv
FNDA:0,_ZNK19QBasicAtomicIntegerIiE11loadRelaxedEv
FN:49,_ZN19QBasicAtomicIntegerIiE3refEv
FNDA:0,_ZN19QBasicAtomicIntegerIiE3refEv
FN:50,_ZN19QBasicAtomicIntegerIiE5derefEv
FNDA:0,_ZN19QBasicAtomicIntegerIiE5derefEv
DA:38,0
DA:49,0
DA:50,0
end_of_record
SF:C:
Users
USER
Documents
UFMG
6
teste
testes_tp
build/C:/Qt/6.6.0/mingw_64/include/QtWidgets/qmessagebox.h
FN:313,_ZorN11QMessageBox14StandardButtonES0_
FNDA:1,_ZorN11QMessageBox14StandardButtonES0_
DA:313,1
end_of_record
SF:C:
Users
USER
Documents
UFMG
6
teste
testes_tp
build/C:/Qt/Tools/mingw1120_64/lib/gcc/x86_64-w64-mingw32/11.2.0/include/c++/bits/stl_iterator_base_types.h
FN:238,_ZSt19__iterator_categoryIPK5QListI7QStringEENSt15iterator_traitsIT_E17iterator_categoryERKS6_
FNDA:0,_ZSt19__iterator_categoryIPK5QListI7QStringEENSt15iterator_traitsIT_E17iterator_categoryERKS6_
FN:238,_ZSt19__iterator_categoryIPK7QStringENSt15iterator_traitsIT_E17iterator_categoryERKS4_
FNDA:0,_ZSt19__iterator_categoryIPK7QStringENSt15iterator_traitsIT_E17iterator_categoryERKS4_
FN:238,_ZSt19__iterator_categoryIPKcENSt15iterator_traitsIT_E17iterator_categoryERKS3_
FNDA:0,_ZSt19__iterator_categoryIPKcENSt15iterator_traitsIT_E17iterator_categoryERKS3_
DA:238,0
DA:239,0
DA:238,0
DA:239,0
DA:238,0
DA:239,0
end_of_record
SF:C:
Users
USER
Documents
UFMG
6
teste
testes_tp
build/..
pesquisar_na_agenda.h
end_of_record
SF:C:
Users
USER
Documents
UFMG
6
teste
testes_tp
build/C:/Qt/6.6.0/mingw_64/include/QtCore/qatomic_cxx11.h
FN:199,_ZN10QAtomicOpsIiE11loadRelaxedIiEET_RKSt6atomicIS2_E
FNDA:0,_ZN10QAtomicOpsIiE11loadRelaxedIiEET_RKSt6atomicIS2_E
FN:243,_ZN10QAtomicOpsIiE3refIiEEbRSt6atomicIT_E
FNDA:0,_ZN10QAtomicOpsIiE3refIiEEbRSt6atomicIT_E
FN:262,_ZN10QAtomicOpsIiE5derefIiEEbRSt6atomicIT_E
FNDA:0,_ZN10QAtomicOpsIiE5derefIiEEbRSt6atomicIT_E
DA:199,0
DA:201,0
DA:243,0
DA:258,0
DA:262,0
DA:265,0
end_of_record
SF:C:
Users
USER
Documents
UFMG
6
teste
testes_tp
build/C:/Qt/6.6.0/mingw_64/include/QtCore/qarraydata.h
FN:43,_ZNK10QArrayData22constAllocatedCapacityEv
FNDA:0,_ZNK10QArrayData22constAllocatedCapacityEv
FN:49,_ZN10QArrayData3refEv
FNDA:0,_ZN10QArrayData3refEv
FN:56,_ZN10QArrayData5derefEv
FNDA:0,_ZN10QArrayData5derefEv
FN:61,_ZNK10QArrayData8isSharedEv
FNDA:0,_ZNK10QArrayData8isSharedEv
FN:69,_ZNK10QArrayData11needsDetachEv
FNDA:0,_ZNK10QArrayData11needsDetachEv
FN:74,_ZNK10QArrayData14detachCapacityEx
FNDA:0,_ZNK10QArrayData14detachCapacityEx
FN:101,_ZN15QTypedArrayDataI5QListI7QStringEE8allocateExN10QArrayData16AllocationOptionE
FNDA:0,_ZN15QTypedArrayDataI5QListI7QStringEE8allocateExN10QArrayData16AllocationOptionE
FN:101,_ZN15QTypedArrayDataI7QStringE8allocateExN10QArrayData16AllocationOptionE
FNDA:0,_ZN15QTypedArrayDataI7QStringE8allocateExN10QArrayData16AllocationOptionE
FN:113,_ZN15QTypedArrayDataI5QListI7QStringEE19reallocateUnalignedEPS3_PS2_xN10QArrayData16AllocationOptionE
FNDA:0,_ZN15QTypedArrayDataI5QListI7QStringEE19reallocateUnalignedEPS3_PS2_xN10QArrayData16AllocationOptionE
FN:113,_ZN15QTypedArrayDataI7QStringE19reallocateUnalignedEPS1_PS0_xN10QArrayData16AllocationOptionE
FNDA:0,_ZN15QTypedArrayDataI7QStringE19reallocateUnalignedEPS1_PS0_xN10QArrayData16AllocationOptionE
FN:127,_ZN15QTypedArrayDataI5QListI7QStringEE9dataStartEP10QArrayDatax
FNDA:0,_ZN15QTypedArrayDataI5QListI7QStringEE9dataStartEP10QArrayDatax
FN:127,_ZN15QTypedArrayDataI7QStringE9dataStartEP10QArrayDatax
FNDA:0,_ZN15QTypedArrayDataI7QStringE9dataStartEP10QArrayDatax
DA:43,0
DA:45,0
DA:49,0
DA:51,0
DA:52,0
DA:56,0
DA:58,0
DA:61,0
DA:63,0
DA:69,0
DA:71,0
DA:74,0
DA:76,0
DA:77,0
DA:78,0
DA:101,0
DA:105,0
DA:107,0
DA:109,0
DA:101,0
DA:105,0
DA:107,0
DA:109,0
DA:113,0
DA:117,0
DA:118,0
DA:113,0
DA:117,0
DA:118,0
DA:127,0
DA:130,0
DA:131,0
DA:132,0
DA:133,0
DA:127,0
DA:130,0
DA:131,0
DA:132,0
DA:133,0
end_of_record
SF:C:
Users
USER
Documents
UFMG
6
teste
testes_tp
build/C:/Qt/6.6.0/mingw_64/include/QtCore/qrect.h
FN:154,_ZN5QRectC1Eiiii
FNDA:0,_ZN5QRectC1Eiiii
DA:154,0
DA:155,0
end_of_record
SF:C:
Users
USER
Documents
UFMG
6
teste
testes_tp
build/..
pesquisar_na_agenda.cpp
FN:4,_ZN19pesquisar_na_agendaC2EP7QWidget
FNDA:6,_ZN19pesquisar_na_agendaC2EP7QWidget
FN:43,_ZN19pesquisar_na_agendaD0Ev
FNDA:0,_ZN19pesquisar_na_agendaD0Ev
FN:43,_ZN19pesquisar_na_agendaD2Ev
FNDA:6,_ZN19pesquisar_na_agendaD2Ev
FN:48,_ZN19pesquisar_na_agenda25on_excluircontato_clickedEv
FNDA:1,_ZN19pesquisar_na_agenda25on_excluircontato_clickedEv
FN:70,_ZN19pesquisar_na_agenda27on_atualizarcontato_clickedEv
FNDA:0,_ZN19pesquisar_na_agenda27on_atualizarcontato_clickedEv
FN:87,_ZN19pesquisar_na_agenda20on_pesquisar_clickedEv
FNDA:2,_ZN19pesquisar_na_agenda20on_pesquisar_clickedEv
FN:117,_ZN19pesquisar_na_agenda17on_voltar_clickedEv
FNDA:0,_ZN19pesquisar_na_agenda17on_voltar_clickedEv
FN:123,_ZN19pesquisar_na_agenda22on_limparbusca_clickedEv
FNDA:0,_ZN19pesquisar_na_agenda22on_limparbusca_clickedEv
FN:129,_ZNK19pesquisar_na_agenda24get_excluir_query_resultEv
FNDA:1,_ZNK19pesquisar_na_agenda24get_excluir_query_resultEv
DA:4,6
DA:6,6
DA:8,6
DA:9,12
DA:10,6
DA:11,6
DA:12,3
DA:13,3
DA:14,91
DA:15,88
DA:16,88
DA:17,88
DA:18,88
DA:19,88
DA:20,88
DA:21,88
DA:22,88
DA:24,3
DA:25,3
DA:26,3
DA:27,3
DA:28,3
DA:30,18
DA:31,3
DA:32,3
DA:33,3
DA:34,3
DA:35,3
DA:36,3
DA:38,3
DA:41,6
DA:43,0
DA:46,0
DA:43,6
DA:45,6
DA:46,6
DA:48,1
DA:50,1
DA:51,1
DA:53,1
DA:54,2
DA:56,1
DA:57,1
DA:58,1
DA:59,1
DA:60,1
DA:63,0
DA:65,1
DA:67,1
DA:70,0
DA:72,0
DA:73,0
DA:74,0
DA:75,0
DA:76,0
DA:77,0
DA:78,0
DA:79,0
DA:80,0
DA:81,0
DA:82,0
DA:83,0
DA:85,0
DA:87,2
DA:89,2
DA:90,2
DA:92,4
DA:93,2
DA:95,2
DA:96,13
DA:97,11
DA:98,66
DA:99,55
DA:101,11
DA:102,11
DA:104,0
DA:107,2
DA:108,2
DA:109,13
DA:110,66
DA:111,55
DA:112,55
DA:115,2
DA:117,0
DA:119,0
DA:120,0
DA:123,0
DA:125,0
DA:126,0
DA:127,0
DA:129,1
DA:130,1
end_of_record
SF:C:
Users
USER
Documents
UFMG
6
teste
testes_tp
build/C:/Qt/6.6.0/mingw_64/include/QtCore/qarraydataops.h
FN:95,_ZN9QtPrivate12QPodArrayOpsIDsE10destroyAllEv
FNDA:0,_ZN9QtPrivate12QPodArrayOpsIDsE10destroyAllEv
FN:329,_ZN9QtPrivate16QGenericArrayOpsI5QListI7QStringEE10copyAppendEPKS3_S6_
FNDA:0,_ZN9QtPrivate16QGenericArrayOpsI5QListI7QStringEE10copyAppendEPKS3_S6_
FN:329,_ZN9QtPrivate16QGenericArrayOpsI7QStringE10copyAppendEPKS1_S4_
FNDA:0,_ZN9QtPrivate16QGenericArrayOpsI7QStringE10copyAppendEPKS1_S4_
FN:361,_ZN9QtPrivate16QGenericArrayOpsI7QStringE10moveAppendEPS1_S3_
FNDA:0,_ZN9QtPrivate16QGenericArrayOpsI7QStringE10moveAppendEPS1_S3_
FN:361,_ZN9QtPrivate16QGenericArrayOpsI5QListI7QStringEE10moveAppendEPS3_S5_
FNDA:0,_ZN9QtPrivate16QGenericArrayOpsI5QListI7QStringEE10moveAppendEPS3_S5_
FN:389,_ZN9QtPrivate16QGenericArrayOpsI5QListI7QStringEE10destroyAllEv
FNDA:0,_ZN9QtPrivate16QGenericArrayOpsI5QListI7QStringEE10destroyAllEv
FN:389,_ZN9QtPrivate16QGenericArrayOpsI7QStringE10destroyAllEv
FNDA:0,_ZN9QtPrivate16QGenericArrayOpsI7QStringE10destroyAllEv
FN:704,_ZN9QtPrivate16QMovableArrayOpsI5QListI7QStringEE8InserterC1EP17QArrayDataPointerIS3_E
FNDA:0,_ZN9QtPrivate16QMovableArrayOpsI5QListI7QStringEE8InserterC1EP17QArrayDataPointerIS3_E
FN:704,_ZN9QtPrivate16QMovableArrayOpsI7QStringE8InserterC1EP17QArrayDataPointerIS1_E
FNDA:0,_ZN9QtPrivate16QMovableArrayOpsI7QStringE8InserterC1EP17QArrayDataPointerIS1_E
FN:705,_ZN9QtPrivate16QMovableArrayOpsI5QListI7QStringEE8InserterD1Ev
FNDA:0,_ZN9QtPrivate16QMovableArrayOpsI5QListI7QStringEE8InserterD1Ev
FN:705,_ZN9QtPrivate16QMovableArrayOpsI7QStringE8InserterD1Ev
FNDA:0,_ZN9QtPrivate16QMovableArrayOpsI7QStringE8InserterD1Ev
FN:716,_ZN9QtPrivate16QMovableArrayOpsI5QListI7QStringEE8Inserter8displaceExx
FNDA:0,_ZN9QtPrivate16QMovableArrayOpsI5QListI7QStringEE8Inserter8displaceExx
FN:716,_ZN9QtPrivate16QMovableArrayOpsI7QStringE8Inserter8displaceExx
FNDA:0,_ZN9QtPrivate16QMovableArrayOpsI7QStringE8Inserter8displaceExx
FN:751,_ZN9QtPrivate16QMovableArrayOpsI5QListI7QStringEE8Inserter9insertOneExOS3_
FNDA:0,_ZN9QtPrivate16QMovableArrayOpsI5QListI7QStringEE8Inserter9insertOneExOS3_
FN:751,_ZN9QtPrivate16QMovableArrayOpsI7QStringE8Inserter9insertOneExOS1_
FNDA:0,_ZN9QtPrivate16QMovableArrayOpsI7QStringE8Inserter9insertOneExOS1_
FN:811,_ZN9QtPrivate16QMovableArrayOpsI5QListI7QStringEE7emplaceIJRKS3_EEEvxDpOT_
FNDA:0,_ZN9QtPrivate16QMovableArrayOpsI5QListI7QStringEE7emplaceIJRKS3_EEEvxDpOT_
FN:811,_ZN9QtPrivate16QMovableArrayOpsI7QStringE7emplaceIJS1_EEEvxDpOT_
FNDA:55,_ZN9QtPrivate16QMovableArrayOpsI7QStringE7emplaceIJS1_EEEvxDpOT_
FN:865,_ZN9QtPrivate16QMovableArrayOpsI7QStringE10reallocateExN10QArrayData16AllocationOptionE
FNDA:0,_ZN9QtPrivate16QMovableArrayOpsI7QStringE10reallocateExN10QArrayData16AllocationOptionE
FN:865,_ZN9QtPrivate16QMovableArrayOpsI5QListI7QStringEE10reallocateExN10QArrayData16AllocationOptionE
FNDA:0,_ZN9QtPrivate16QMovableArrayOpsI5QListI7QStringEE10reallocateExN10QArrayData16AllocationOptionE
DA:95,0
DA:97,0
DA:98,0
DA:102,0
DA:329,0
DA:331,0
DA:332,0
DA:333,0
DA:334,0
DA:336,0
DA:337,0
DA:339,0
DA:340,0
DA:341,0
DA:342,0
DA:343,0
DA:329,0
DA:331,0
DA:332,0
DA:333,0
DA:334,0
DA:336,0
DA:337,0
DA:339,0
DA:340,0
DA:341,0
DA:342,0
DA:343,0
DA:361,0
DA:363,0
DA:364,0
DA:365,0
DA:366,0
DA:368,0
DA:369,0
DA:371,0
DA:372,0
DA:373,0
DA:374,0
DA:375,0
DA:361,0
DA:363,0
DA:364,0
DA:365,0
DA:366,0
DA:368,0
DA:369,0
DA:371,0
DA:372,0
DA:373,0
DA:374,0
DA:375,0
DA:389,0
DA:391,0
DA:395,0
DA:397,0
DA:398,0
DA:389,0
DA:391,0
DA:395,0
DA:397,0
DA:398,0
DA:704,0
DA:704,0
DA:705,0
DA:712,0
DA:713,0
DA:705,0
DA:712,0
DA:713,0
DA:716,0
DA:718,0
DA:719,0
DA:720,0
DA:721,0
DA:722,0
DA:723,0
DA:724,0
DA:725,0
DA:716,0
DA:718,0
DA:719,0
DA:720,0
DA:721,0
DA:722,0
DA:723,0
DA:724,0
DA:725,0
DA:751,0
DA:753,0
DA:754,0
DA:755,0
DA:756,0
DA:757,0
DA:751,0
DA:753,0
DA:754,0
DA:755,0
DA:756,0
DA:757,0
DA:811,0
DA:813,0
DA:814,0
DA:815,0
DA:816,0
DA:817,0
DA:818,0
DA:820,0
DA:821,0
DA:822,0
DA:823,0
DA:824,0
DA:827,0
DA:828,0
DA:829,0
DA:831,0
DA:832,0
DA:833,0
DA:834,0
DA:835,0
DA:836,0
DA:838,0
DA:840,0
DA:811,55
DA:813,55
DA:814,55
DA:815,44
DA:816,22
DA:817,22
DA:818,22
DA:820,22
DA:821,0
DA:822,0
DA:823,0
DA:824,0
DA:827,33
DA:828,33
DA:829,33
DA:831,33
DA:832,33
DA:833,0
DA:834,0
DA:835,0
DA:836,0
DA:838,33
DA:840,33
DA:865,0
DA:867,0
DA:868,0
DA:869,0
DA:870,0
DA:871,0
DA:872,0
DA:865,0
DA:867,0
DA:868,0
DA:869,0
DA:870,0
DA:871,0
DA:872,0
end_of_record
SF:C:
Users
USER
Documents
UFMG
6
teste
testes_tp
build/C:/Qt/Tools/mingw1120_64/lib/gcc/x86_64-w64-mingw32/11.2.0/include/c++/bits/stl_pair.h
FN:352,_ZNSt4pairIP15QTypedArrayDataI5QListI7QStringEEPS3_EC1IS5_S6_Lb1EEEOT_OT0_
FNDA:0,_ZNSt4pairIP15QTypedArrayDataI5QListI7QStringEEPS3_EC1IS5_S6_Lb1EEEOT_OT0_
FN:352,_ZNSt4pairIP15QTypedArrayDataI7QStringEPS1_EC1IS3_S4_Lb1EEEOT_OT0_
FNDA:0,_ZNSt4pairIP15QTypedArrayDataI7QStringEPS1_EC1IS3_S4_Lb1EEEOT_OT0_
FN:567,_ZSt9make_pairIP15QTypedArrayDataI5QListI7QStringEEPS3_ESt4pairINSt25__strip_reference_wrapperINSt5decayIT_E4typeEE6__typeENS8_INS9_IT0_E4typeEE6__typeEEOSA_OSF_
FNDA:0,_ZSt9make_pairIP15QTypedArrayDataI5QListI7QStringEEPS3_ESt4pairINSt25__strip_reference_wrapperINSt5decayIT_E4typeEE6__typeENS8_INS9_IT0_E4typeEE6__typeEEOSA_OSF_
FN:567,_ZSt9make_pairIP15QTypedArrayDataI7QStringEPS1_ESt4pairINSt25__strip_reference_wrapperINSt5decayIT_E4typeEE6__typeENS6_INS7_IT0_E4typeEE6__typeEEOS8_OSD_
FNDA:0,_ZSt9make_pairIP15QTypedArrayDataI7QStringEPS1_ESt4pairINSt25__strip_reference_wrapperINSt5decayIT_E4typeEE6__typeENS6_INS7_IT0_E4typeEE6__typeEEOS8_OSD_
DA:352,0
DA:353,0
DA:352,0
DA:353,0
DA:567,0
DA:572,0
DA:567,0
DA:572,0
end_of_record
SF:C:
Users
USER
Documents
UFMG
6
teste
testes_tp
build/C:/Qt/6.6.0/mingw_64/include/QtCore/qanystringview.h
FN:101,_ZN14QAnyStringView29isAsciiOnlyCharsAtCompileTimeIKcEEbPT_x
FNDA:0,_ZN14QAnyStringView29isAsciiOnlyCharsAtCompileTimeIKcEEbPT_x
FN:131,_ZN14QAnyStringView10encodeTypeIcEEyPKT_x
FNDA:0,_ZN14QAnyStringView10encodeTypeIcEEyPKT_x
FN:166,_ZN14QAnyStringView21lengthHelperContainerIcLy19EEExRAT0__KT_
FNDA:0,_ZN14QAnyStringView21lengthHelperContainerIcLy19EEExRAT0__KT_
FN:166,_ZN14QAnyStringView21lengthHelperContainerIcLy10EEExRAT0__KT_
FNDA:0,_ZN14QAnyStringView21lengthHelperContainerIcLy10EEExRAT0__KT_
FN:166,_ZN14QAnyStringView21lengthHelperContainerIcLy20EEExRAT0__KT_
FNDA:0,_ZN14QAnyStringView21lengthHelperContainerIcLy20EEExRAT0__KT_
FN:166,_ZN14QAnyStringView21lengthHelperContainerIcLy13EEExRAT0__KT_
FNDA:0,_ZN14QAnyStringView21lengthHelperContainerIcLy13EEExRAT0__KT_
FN:166,_ZN14QAnyStringView21lengthHelperContainerIcLy15EEExRAT0__KT_
FNDA:0,_ZN14QAnyStringView21lengthHelperContainerIcLy15EEExRAT0__KT_
FN:166,_ZN14QAnyStringView21lengthHelperContainerIcLy17EEExRAT0__KT_
FNDA:0,_ZN14QAnyStringView21lengthHelperContainerIcLy17EEExRAT0__KT_
FN:166,_ZN14QAnyStringView21lengthHelperContainerIcLy6EEExRAT0__KT_
FNDA:0,_ZN14QAnyStringView21lengthHelperContainerIcLy6EEExRAT0__KT_
FN:166,_ZN14QAnyStringView21lengthHelperContainerIcLy16EEExRAT0__KT_
FNDA:6,_ZN14QAnyStringView21lengthHelperContainerIcLy16EEExRAT0__KT_
FN:166,_ZN14QAnyStringView21lengthHelperContainerIcLy12EEExRAT0__KT_
FNDA:0,_ZN14QAnyStringView21lengthHelperContainerIcLy12EEExRAT0__KT_
FN:166,_ZN14QAnyStringView21lengthHelperContainerIcLy7EEExRAT0__KT_
FNDA:0,_ZN14QAnyStringView21lengthHelperContainerIcLy7EEExRAT0__KT_
FN:186,_ZN14QAnyStringViewC1IcLb1EEEPKT_x
FNDA:0,_ZN14QAnyStringViewC1IcLb1EEEPKT_x
FN:214,_ZN14QAnyStringViewC1IA6_cLb1EEERKT_
FNDA:0,_ZN14QAnyStringViewC1IA6_cLb1EEERKT_
FN:214,_ZN14QAnyStringViewC1IA19_cLb1EEERKT_
FNDA:0,_ZN14QAnyStringViewC1IA19_cLb1EEERKT_
FN:214,_ZN14QAnyStringViewC1IA17_cLb1EEERKT_
FNDA:0,_ZN14QAnyStringViewC1IA17_cLb1EEERKT_
FN:214,_ZN14QAnyStringViewC1IA16_cLb1EEERKT_
FNDA:6,_ZN14QAnyStringViewC1IA16_cLb1EEERKT_
FN:214,_ZN14QAnyStringViewC1IA15_cLb1EEERKT_
FNDA:0,_ZN14QAnyStringViewC1IA15_cLb1EEERKT_
FN:214,_ZN14QAnyStringViewC1IA13_cLb1EEERKT_
FNDA:0,_ZN14QAnyStringViewC1IA13_cLb1EEERKT_
FN:214,_ZN14QAnyStringViewC1IA12_cLb1EEERKT_
FNDA:0,_ZN14QAnyStringViewC1IA12_cLb1EEERKT_
FN:214,_ZN14QAnyStringViewC1IA20_cLb1EEERKT_
FNDA:0,_ZN14QAnyStringViewC1IA20_cLb1EEERKT_
FN:214,_ZN14QAnyStringViewC1IA10_cLb1EEERKT_
FNDA:0,_ZN14QAnyStringViewC1IA10_cLb1EEERKT_
FN:214,_ZN14QAnyStringViewC1IA7_cLb1EEERKT_
FNDA:0,_ZN14QAnyStringViewC1IA7_cLb1EEERKT_
DA:101,0
DA:114,0
DA:131,0
DA:134,0
DA:135,0
DA:136,0
DA:137,0
DA:139,0
DA:166,0
DA:168,0
DA:169,0
DA:170,0
DA:166,0
DA:168,0
DA:169,0
DA:170,0
DA:166,6
DA:168,6
DA:169,6
DA:170,6
DA:166,0
DA:168,0
DA:169,0
DA:170,0
DA:166,0
DA:168,0
DA:169,0
DA:170,0
DA:166,0
DA:168,0
DA:169,0
DA:170,0
DA:166,0
DA:168,0
DA:169,0
DA:170,0
DA:166,0
DA:168,0
DA:169,0
DA:170,0
DA:166,0
DA:168,0
DA:169,0
DA:170,0
DA:166,0
DA:168,0
DA:169,0
DA:170,0
DA:186,0
DA:187,0
DA:189,0
DA:214,0
DA:215,0
DA:214,0
DA:215,0
DA:214,6
DA:215,6
DA:214,0
DA:215,0
DA:214,0
DA:215,0
DA:214,0
DA:215,0
DA:214,0
DA:215,0
DA:214,0
DA:215,0
DA:214,0
DA:215,0
DA:214,0
DA:215,0
end_of_record
SF:C:
Users
USER
Documents
UFMG
6
teste
testes_tp
build/C:/Qt/6.6.0/mingw_64/include/QtWidgets/qwidget.h
FN:423,_ZN7QWidget8setFocusEv
FNDA:0,_ZN7QWidget8setFocusEv
FN:883,_ZN7QWidget6resizeEii
FNDA:0,_ZN7QWidget6resizeEii
DA:423,0
DA:883,0
DA:884,0
end_of_record
SF:C:
Users
USER
Documents
UFMG
6
teste
testes_tp
build/C:/Qt/Tools/mingw1120_64/lib/gcc/x86_64-w64-mingw32/11.2.0/include/c++/bits/range_access.h
FN:61,_ZSt5beginI17QArrayDataPointerI5QListI7QStringEEEDTcldtfp_5beginEERKT_
FNDA:0,_ZSt5beginI17QArrayDataPointerI5QListI7QStringEEEDTcldtfp_5beginEERKT_
FN:61,_ZSt5beginI17QArrayDataPointerI7QStringEEDTcldtfp_5beginEERKT_
FNDA:0,_ZSt5beginI17QArrayDataPointerI7QStringEEDTcldtfp_5beginEERKT_
FN:81,_ZSt3endI17QArrayDataPointerI5QListI7QStringEEEDTcldtfp_3endEERKT_
FNDA:0,_ZSt3endI17QArrayDataPointerI5QListI7QStringEEEDTcldtfp_3endEERKT_
FN:81,_ZSt3endI17QArrayDataPointerI7QStringEEDTcldtfp_3endEERKT_
FNDA:0,_ZSt3endI17QArrayDataPointerI7QStringEEDTcldtfp_3endEERKT_
FN:300,_ZSt4dataI17QArrayDataPointerI5QListI7QStringEEEDTcldtfp_4dataEERKT_
FNDA:0,_ZSt4dataI17QArrayDataPointerI5QListI7QStringEEEDTcldtfp_4dataEERKT_
FN:300,_ZSt4dataI17QArrayDataPointerI7QStringEEDTcldtfp_4dataEERKT_
FNDA:0,_ZSt4dataI17QArrayDataPointerI7QStringEEDTcldtfp_4dataEERKT_
FN:310,_ZSt4dataIKcLy7EEPT_RAT0__S1_
FNDA:0,_ZSt4dataIKcLy7EEPT_RAT0__S1_
FN:310,_ZSt4dataIKcLy12EEPT_RAT0__S1_
FNDA:0,_ZSt4dataIKcLy12EEPT_RAT0__S1_
FN:310,_ZSt4dataIKcLy16EEPT_RAT0__S1_
FNDA:6,_ZSt4dataIKcLy16EEPT_RAT0__S1_
FN:310,_ZSt4dataIKcLy6EEPT_RAT0__S1_
FNDA:0,_ZSt4dataIKcLy6EEPT_RAT0__S1_
FN:310,_ZSt4dataIKcLy19EEPT_RAT0__S1_
FNDA:0,_ZSt4dataIKcLy19EEPT_RAT0__S1_
FN:310,_ZSt4dataIKcLy17EEPT_RAT0__S1_
FNDA:0,_ZSt4dataIKcLy17EEPT_RAT0__S1_
FN:310,_ZSt4dataIKcLy15EEPT_RAT0__S1_
FNDA:0,_ZSt4dataIKcLy15EEPT_RAT0__S1_
FN:310,_ZSt4dataIKcLy13EEPT_RAT0__S1_
FNDA:0,_ZSt4dataIKcLy13EEPT_RAT0__S1_
FN:310,_ZSt4dataIKcLy20EEPT_RAT0__S1_
FNDA:0,_ZSt4dataIKcLy20EEPT_RAT0__S1_
FN:310,_ZSt4dataIKcLy10EEPT_RAT0__S1_
FNDA:0,_ZSt4dataIKcLy10EEPT_RAT0__S1_
DA:61,0
DA:62,0
DA:61,0
DA:62,0
DA:81,0
DA:82,0
DA:81,0
DA:82,0
DA:300,0
DA:302,0
DA:300,0
DA:302,0
DA:310,0
DA:311,0
DA:310,0
DA:311,0
DA:310,6
DA:311,6
DA:310,0
DA:311,0
DA:310,0
DA:311,0
DA:310,0
DA:311,0
DA:310,0
DA:311,0
DA:310,0
DA:311,0
DA:310,0
DA:311,0
DA:310,0
DA:311,0
end_of_record
SF:C:
Users
USER
Documents
UFMG
6
teste
testes_tp
build/C:/Qt/6.6.0/mingw_64/include/QtCore/qutf8stringview.h
FN:148,_ZN20QBasicUtf8StringViewILb0EE10castHelperEPKc
FNDA:0,_ZN20QBasicUtf8StringViewILb0EE10castHelperEPKc
FN:158,_ZN20QBasicUtf8StringViewILb0EEC1IcLb1EEEPKT_x
FNDA:0,_ZN20QBasicUtf8StringViewILb0EEC1IcLb1EEEPKT_x
FN:174,_ZN20QBasicUtf8StringViewILb0EEC1IPKcLb1EEERKT_
FNDA:0,_ZN20QBasicUtf8StringViewILb0EEC1IPKcLb1EEERKT_
DA:148,0
DA:149,0
DA:158,0
DA:159,0
DA:160,0
DA:174,0
DA:176,0
end_of_record
SF:C:
Users
USER
Documents
UFMG
6
teste
testes_tp
build/C:/Qt/Tools/mingw1120_64/lib/gcc/x86_64-w64-mingw32/11.2.0/include/c++/initializer_list
FN:71,_ZNKSt16initializer_listI7QStringE4sizeEv
FNDA:0,_ZNKSt16initializer_listI7QStringE4sizeEv
FN:75,_ZNKSt16initializer_listI7QStringE5beginEv
FNDA:0,_ZNKSt16initializer_listI7QStringE5beginEv
FN:79,_ZNKSt16initializer_listI7QStringE3endEv
FNDA:0,_ZNKSt16initializer_listI7QStringE3endEv
DA:71,0
DA:75,0
DA:79,0
end_of_record
SF:C:
Users
USER
Documents
UFMG
6
teste
testes_tp
build/C:/Qt/Tools/mingw1120_64/lib/gcc/x86_64-w64-mingw32/11.2.0/include/c++/bits/char_traits.h
FN:106,_ZN9__gnu_cxx11char_traitsIcE2eqERKcS3_
FNDA:0,_ZN9__gnu_cxx11char_traitsIcE2eqERKcS3_
FN:167,_ZN9__gnu_cxx11char_traitsIcE6lengthEPKc
FNDA:0,_ZN9__gnu_cxx11char_traitsIcE6lengthEPKc
FN:178,_ZN9__gnu_cxx11char_traitsIcE4findEPKcyRS2_
FNDA:0,_ZN9__gnu_cxx11char_traitsIcE4findEPKcyRS2_
FN:365,_ZNSt11char_traitsIcE6lengthEPKc
FNDA:0,_ZNSt11char_traitsIcE6lengthEPKc
FN:375,_ZNSt11char_traitsIcE4findEPKcyRS1_
FNDA:0,_ZNSt11char_traitsIcE4findEPKcyRS1_
DA:106,0
DA:107,0
DA:167,0
DA:170,0
DA:171,0
DA:172,0
DA:173,0
DA:178,0
DA:181,0
DA:182,0
DA:183,0
DA:184,0
DA:262,0
DA:365,0
DA:368,0
DA:369,0
DA:371,0
DA:375,0
DA:377,0
DA:378,0
DA:380,0
DA:382,0
DA:383,0
DA:385,0
end_of_record
SF:C:
Users
USER
Documents
UFMG
6
teste
testes_tp
build/C:/Qt/6.6.0/mingw_64/include/QtCore/qpair.h
FN:19,_Z9qMakePairIP15QTypedArrayDataI5QListI7QStringEEPS3_EDcOT_OT0_
FNDA:0,_Z9qMakePairIP15QTypedArrayDataI5QListI7QStringEEPS3_EDcOT_OT0_
FN:19,_Z9qMakePairIP15QTypedArrayDataI7QStringEPS1_EDcOT_OT0_
FNDA:0,_Z9qMakePairIP15QTypedArrayDataI7QStringEPS1_EDcOT_OT0_
DA:19,0
DA:22,0
DA:19,0
DA:22,0
end_of_record
SF:C:
Users
USER
Documents
UFMG
6
teste
testes_tp
build/C:/Qt/6.6.0/mingw_64/include/QtCore/qflags.h
FN:20,_ZN5QFlagC1Ei
FNDA:1,_ZN5QFlagC1Ei
FN:21,_ZNK5QFlagcviEv
FNDA:1,_ZNK5QFlagcviEv
FN:31,_ZN5QFlagC1Ej
FNDA:0,_ZN5QFlagC1Ej
FN:34,_ZNK5QFlagcvjEv
FNDA:0,_ZNK5QFlagcvjEv
FN:73,_ZN6QFlagsIN2Qt13AlignmentFlagEEC1Ev
FNDA:0,_ZN6QFlagsIN2Qt13AlignmentFlagEEC1Ev
FN:73,_ZN6QFlagsIN2Qt10WindowTypeEEC1Ev
FNDA:0,_ZN6QFlagsIN2Qt10WindowTypeEEC1Ev
FN:74,_ZN6QFlagsIN11QMessageBox14StandardButtonEEC1ES1_
FNDA:0,_ZN6QFlagsIN11QMessageBox14StandardButtonEEC1ES1_
FN:74,_ZN6QFlagsIN17QAbstractItemView11EditTriggerEEC1ES1_
FNDA:3,_ZN6QFlagsIN17QAbstractItemView11EditTriggerEEC1ES1_
FN:74,_ZN6QFlagsIN10QArrayData11ArrayOptionEEC1ES1_
FNDA:0,_ZN6QFlagsIN10QArrayData11ArrayOptionEEC1ES1_
FN:75,_ZN6QFlagsIN10QArrayData11ArrayOptionEEC1E5QFlag
FNDA:0,_ZN6QFlagsIN10QArrayData11ArrayOptionEEC1E5QFlag
FN:75,_ZN6QFlagsIN11QMessageBox14StandardButtonEEC1E5QFlag
FNDA:1,_ZN6QFlagsIN11QMessageBox14StandardButtonEEC1E5QFlag
FN:103,_ZNK6QFlagsIN10QArrayData11ArrayOptionEEcvjEv
FNDA:0,_ZNK6QFlagsIN10QArrayData11ArrayOptionEEcvjEv
FN:108,_ZNK6QFlagsIN11QMessageBox14StandardButtonEEorES1_
FNDA:1,_ZNK6QFlagsIN11QMessageBox14StandardButtonEEorES1_
FN:116,_ZNK6QFlagsIN10QArrayData11ArrayOptionEEanES1_
FNDA:0,_ZNK6QFlagsIN10QArrayData11ArrayOptionEEanES1_
DA:20,1
DA:21,1
DA:31,0
DA:34,0
DA:73,0
DA:73,0
DA:74,0
DA:74,3
DA:74,0
DA:75,0
DA:75,1
DA:103,0
DA:108,1
DA:116,0
end_of_record
SF:C:
Users
USER
Documents
UFMG
6
teste
testes_tp
build/C:/Qt/Tools/mingw1120_64/lib/gcc/x86_64-w64-mingw32/11.2.0/include/c++/bits/stl_iterator_base_funcs.h
FN:98,_ZSt10__distanceIPK5QListI7QStringEENSt15iterator_traitsIT_E15difference_typeES6_S6_St26random_access_iterator_tag
FNDA:0,_ZSt10__distanceIPK5QListI7QStringEENSt15iterator_traitsIT_E15difference_typeES6_S6_St26random_access_iterator_tag
FN:98,_ZSt10__distanceIPK7QStringENSt15iterator_traitsIT_E15difference_typeES4_S4_St26random_access_iterator_tag
FNDA:0,_ZSt10__distanceIPK7QStringENSt15iterator_traitsIT_E15difference_typeES4_S4_St26random_access_iterator_tag
FN:98,_ZSt10__distanceIPKcENSt15iterator_traitsIT_E15difference_typeES3_S3_St26random_access_iterator_tag
FNDA:0,_ZSt10__distanceIPKcENSt15iterator_traitsIT_E15difference_typeES3_S3_St26random_access_iterator_tag
FN:138,_ZSt8distanceIPK5QListI7QStringEENSt15iterator_traitsIT_E15difference_typeES6_S6_
FNDA:0,_ZSt8distanceIPK5QListI7QStringEENSt15iterator_traitsIT_E15difference_typeES6_S6_
FN:138,_ZSt8distanceIPK7QStringENSt15iterator_traitsIT_E15difference_typeES4_S4_
FNDA:0,_ZSt8distanceIPK7QStringENSt15iterator_traitsIT_E15difference_typeES4_S4_
FN:138,_ZSt8distanceIPKcENSt15iterator_traitsIT_E15difference_typeES3_S3_
FNDA:0,_ZSt8distanceIPKcENSt15iterator_traitsIT_E15difference_typeES3_S3_
FN:174,_ZSt9__advanceIPKcxEvRT_T0_St26random_access_iterator_tag
FNDA:0,_ZSt9__advanceIPKcxEvRT_T0_St26random_access_iterator_tag
FN:202,_ZSt7advanceIPKcxEvRT_T0_
FNDA:0,_ZSt7advanceIPKcxEvRT_T0_
FN:213,_ZSt4nextIPKcET_S2_NSt15iterator_traitsIS2_E15difference_typeE
FNDA:0,_ZSt4nextIPKcET_S2_NSt15iterator_traitsIS2_E15difference_typeE
DA:98,0
DA:104,0
DA:98,0
DA:104,0
DA:98,0
DA:104,0
DA:138,0
DA:141,0
DA:142,0
DA:138,0
DA:141,0
DA:142,0
DA:138,0
DA:141,0
DA:142,0
DA:174,0
DA:185,0
DA:186,0
DA:202,0
DA:205,0
DA:206,0
DA:207,0
DA:213,0
DA:218,0
DA:219,0
end_of_record
SF:C:
Users
USER
Documents
UFMG
6
teste
testes_tp
build/C:/Qt/Tools/mingw1120_64/lib/gcc/x86_64-w64-mingw32/11.2.0/include/c++/bits/stl_function.h
FN:433,_ZNKSt4lessIPK5QListI7QStringEEclES4_S4_
FNDA:0,_ZNKSt4lessIPK5QListI7QStringEEclES4_S4_
FN:433,_ZNKSt4lessIPK7QStringEclES2_S2_
FNDA:0,_ZNKSt4lessIPK7QStringEclES2_S2_
FN:592,_ZNKSt4lessIvEclIK5QListI7QStringES5_EEbPT_PT0_
FNDA:0,_ZNKSt4lessIvEclIK5QListI7QStringES5_EEbPT_PT0_
FN:592,_ZNKSt4lessIvEclIK7QStringS3_EEbPT_PT0_
FNDA:0,_ZNKSt4lessIvEclIK7QStringS3_EEbPT_PT0_
DA:433,0
DA:443,0
DA:433,0
DA:443,0
DA:592,0
DA:593,0
DA:592,0
DA:593,0
end_of_record
SF:C:
Users
USER
Documents
UFMG
6
teste
testes_tp
build/C:/Qt/Tools/mingw1120_64/lib/gcc/x86_64-w64-mingw32/11.2.0/include/c++/bits/atomic_base.h
FN:104,_ZStanSt12memory_orderSt23__memory_order_modifier
FNDA:0,_ZStanSt12memory_orderSt23__memory_order_modifier
DA:104,0
DA:106,0
DA:477,0
DA:481,0
DA:636,0
DA:646,0
end_of_record
SF:C:
Users
USER
Documents
UFMG
6
teste
testes_tp
build/C:/Qt/6.6.0/mingw_64/include/QtCore/qstring.h
FN:178,_ZN7QStringC1EOS_
FNDA:0,_ZN7QStringC1EOS_
FN:182,_ZNK7QString4sizeEv
FNDA:0,_ZNK7QString4sizeEv
FN:188,_ZNK7QString7isEmptyEv
FNDA:0,_ZNK7QString7isEmptyEv
FN:463,_ZN7QStringpLERKS_
FNDA:0,_ZN7QStringpLERKS_
FN:660,_ZNK7QString5toIntEPbi
FNDA:0,_ZNK7QString5toIntEPbi
FN:782,_ZN7QStringC1EPKc
FNDA:0,_ZN7QStringC1EPKc
FN:806,_ZN7QStringpLEPKc
FNDA:0,_ZN7QStringpLEPKc
FN:898,_ZNK7QString6isNullEv
FNDA:0,_ZNK7QString6isNullEv
FN:970,_ZN7QString17toIntegral_helperIiEET_11QStringViewPbi
FNDA:0,_ZN7QString17toIntegral_helperIiEET_11QStringViewPbi
FN:1085,_ZNK7QString4dataEv
FNDA:0,_ZNK7QString4dataEv
FN:1107,_ZN7QStringC1ERKS_
FNDA:0,_ZN7QStringC1ERKS_
FN:1168,_ZN7QStringC1Ev
FNDA:0,_ZN7QStringC1Ev
FN:1169,_ZN7QStringD1Ev
FNDA:0,_ZN7QStringD1Ev
FN:1293,_ZplO7QStringRKS_
FNDA:0,_ZplO7QStringRKS_
FN:1304,_ZplO7QStringPKc
FNDA:0,_ZplO7QStringPKc
FN:1306,_ZplPKcRK7QString
FNDA:0,_ZplPKcRK7QString
DA:178,0
DA:182,0
DA:188,0
DA:463,0
DA:660,0
DA:661,0
DA:782,0
DA:783,0
DA:784,0
DA:806,0
DA:807,0
DA:898,0
DA:970,0
DA:976,0
DA:977,0
DA:978,0
DA:979,0
DA:980,0
DA:982,0
DA:1085,0
DA:1088,0
DA:1107,0
DA:1108,0
DA:1168,0
DA:1169,0
DA:1293,0
DA:1294,0
DA:1304,0
DA:1305,0
DA:1306,0
DA:1307,0
end_of_record
SF:C:
Users
USER
Documents
UFMG
6
teste
testes_tp
build/C:/Qt/6.6.0/mingw_64/include/QtWidgets/qtablewidget.h
FN:74,_ZNK16QTableWidgetItem4textEv
FNDA:0,_ZNK16QTableWidgetItem4textEv
DA:74,0
DA:75,0
end_of_record
SF:C:
Users
USER
Documents
UFMG
6
teste
testes_tp
build/C:/Qt/6.6.0/mingw_64/include/QtCore/qbytearrayview.h
FN:67,_ZN9QtPrivateL19lengthHelperPointerIcEExPKT_
FNDA:0,_ZN9QtPrivateL19lengthHelperPointerIcEExPKT_
FN:116,_ZN14QByteArrayView21lengthHelperCharArrayEPKcy
FNDA:0,_ZN14QByteArrayView21lengthHelperCharArrayEPKcy
FN:126,_ZN14QByteArrayView10castHelperEPKc
FNDA:0,_ZN14QByteArrayView10castHelperEPKc
FN:136,_ZN14QByteArrayViewC1IcLb1EEEPKT_x
FNDA:0,_ZN14QByteArrayViewC1IcLb1EEEPKT_x
FN:149,_ZN14QByteArrayViewC1IPKcLb1EEERKT_
FNDA:0,_ZN14QByteArrayViewC1IPKcLb1EEERKT_
FN:166,_ZN14QByteArrayViewC1ILy130EEERAT__Kc
FNDA:18,_ZN14QByteArrayViewC1ILy130EEERAT__Kc
FN:166,_ZN14QByteArrayViewC1ILy1EEERAT__Kc
FNDA:0,_ZN14QByteArrayViewC1ILy1EEERAT__Kc
FN:166,_ZN14QByteArrayViewC1ILy135EEERAT__Kc
FNDA:0,_ZN14QByteArrayViewC1ILy135EEERAT__Kc
FN:166,_ZN14QByteArrayViewC1ILy29EEERAT__Kc
FNDA:6,_ZN14QByteArrayViewC1ILy29EEERAT__Kc
FN:166,_ZN14QByteArrayViewC1ILy83EEERAT__Kc
FNDA:6,_ZN14QByteArrayViewC1ILy83EEERAT__Kc
FN:166,_ZN14QByteArrayViewC1ILy157EEERAT__Kc
FNDA:6,_ZN14QByteArrayViewC1ILy157EEERAT__Kc
DA:67,0
DA:69,0
DA:116,0
DA:118,0
DA:119,0
DA:120,0
DA:126,0
DA:127,0
DA:136,0
DA:137,0
DA:138,0
DA:149,0
DA:151,0
DA:166,18
DA:167,18
DA:166,0
DA:167,0
DA:166,0
DA:167,0
DA:166,6
DA:167,6
DA:166,6
DA:167,6
DA:166,6
DA:167,6
end_of_record
SF:C:
Users
USER
Documents
UFMG
6
teste
testes_tp
build/C:/Qt/6.6.0/mingw_64/include/QtCore/qcontainertools_impl.h
FN:36,_ZN9QtPrivateL19q_points_into_rangeI5QListI7QStringESt4lessIvEEEbPKT_S8_S8_T0_
FNDA:0,_ZN9QtPrivateL19q_points_into_rangeI5QListI7QStringESt4lessIvEEEbPKT_S8_S8_T0_
FN:36,_ZN9QtPrivateL19q_points_into_rangeI7QStringSt4lessIvEEEbPKT_S6_S6_T0_
FNDA:0,_ZN9QtPrivateL19q_points_into_rangeI7QStringSt4lessIvEEEbPKT_S6_S6_T0_
FN:49,_ZN9QtPrivateL19q_points_into_rangeI17QArrayDataPointerI5QListI7QStringEEPKS4_EEbRKT0_RKT_
FNDA:0,_ZN9QtPrivateL19q_points_into_rangeI17QArrayDataPointerI5QListI7QStringEEPKS4_EEbRKT0_RKT_
FN:49,_ZN9QtPrivateL19q_points_into_rangeI17QArrayDataPointerI7QStringEPKS2_EEbRKT0_RKT_
FNDA:0,_ZN9QtPrivateL19q_points_into_rangeI17QArrayDataPointerI7QStringEPKS2_EEbRKT0_RKT_
FN:234,_ZN9QtPrivate20q_relocate_overlap_nI5QListI7QStringExEEvPT_T0_S5_
FNDA:0,_ZN9QtPrivate20q_relocate_overlap_nI5QListI7QStringExEEvPT_T0_S5_
FN:234,_ZN9QtPrivate20q_relocate_overlap_nI7QStringxEEvPT_T0_S3_
FNDA:0,_ZN9QtPrivate20q_relocate_overlap_nI7QStringxEEvPT_T0_S3_
DA:36,0
DA:39,0
DA:36,0
DA:39,0
DA:49,0
DA:55,0
DA:56,0
DA:49,0
DA:55,0
DA:56,0
DA:234,0
DA:239,0
DA:240,0
DA:243,0
DA:234,0
DA:239,0
DA:240,0
DA:243,0
end_of_record
SF:C:
Users
USER
Documents
UFMG
6
teste
testes_tp
build/C:/Qt/Tools/mingw1120_64/lib/gcc/x86_64-w64-mingw32/11.2.0/include/c++/bits/move.h
FN:49,_ZSt11__addressofI5QListI7QStringEEPT_RS3_
FNDA:0,_ZSt11__addressofI5QListI7QStringEEPT_RS3_
FN:49,_ZSt11__addressofI7QStringEPT_RS1_
FNDA:0,_ZSt11__addressofI7QStringEPT_RS1_
FN:77,_ZSt7forwardIP5QListI7QStringEEOT_RNSt16remove_referenceIS4_E4typeE
FNDA:0,_ZSt7forwardIP5QListI7QStringEEOT_RNSt16remove_referenceIS4_E4typeE
FN:77,_ZSt7forwardIP15QTypedArrayDataI5QListI7QStringEEEOT_RNSt16remove_referenceIS6_E4typeE
FNDA:0,_ZSt7forwardIP15QTypedArrayDataI5QListI7QStringEEEOT_RNSt16remove_referenceIS6_E4typeE
FN:77,_ZSt7forwardIRK5QListI7QStringEEOT_RNSt16remove_referenceIS5_E4typeE
FNDA:0,_ZSt7forwardIRK5QListI7QStringEEOT_RNSt16remove_referenceIS5_E4typeE
FN:77,_ZSt7forwardI7QStringEOT_RNSt16remove_referenceIS1_E4typeE
FNDA:110,_ZSt7forwardI7QStringEOT_RNSt16remove_referenceIS1_E4typeE
FN:77,_ZSt7forwardIP7QStringEOT_RNSt16remove_referenceIS2_E4typeE
FNDA:0,_ZSt7forwardIP7QStringEOT_RNSt16remove_referenceIS2_E4typeE
FN:77,_ZSt7forwardIP15QTypedArrayDataI7QStringEEOT_RNSt16remove_referenceIS4_E4typeE
FNDA:0,_ZSt7forwardIP15QTypedArrayDataI7QStringEEOT_RNSt16remove_referenceIS4_E4typeE
FN:104,_ZSt4moveIRSt4pairIP15QTypedArrayDataI5QListI7QStringEEPS4_EEONSt16remove_referenceIT_E4typeEOSB_
FNDA:0,_ZSt4moveIRSt4pairIP15QTypedArrayDataI5QListI7QStringEEPS4_EEONSt16remove_referenceIT_E4typeEOSB_
FN:104,_ZSt4moveIRSt4pairIP15QTypedArrayDataI7QStringEPS2_EEONSt16remove_referenceIT_E4typeEOS9_
FNDA:0,_ZSt4moveIRSt4pairIP15QTypedArrayDataI7QStringEPS2_EEONSt16remove_referenceIT_E4typeEOS9_
FN:104,_ZSt4moveIR5QListI7QStringEEONSt16remove_referenceIT_E4typeEOS5_
FNDA:0,_ZSt4moveIR5QListI7QStringEEONSt16remove_referenceIT_E4typeEOS5_
FN:104,_ZSt4moveIRxEONSt16remove_referenceIT_E4typeEOS2_
FNDA:0,_ZSt4moveIRxEONSt16remove_referenceIT_E4typeEOS2_
FN:104,_ZSt4moveIR7QStringEONSt16remove_referenceIT_E4typeEOS3_
FNDA:0,_ZSt4moveIR7QStringEONSt16remove_referenceIT_E4typeEOS3_
FN:196,_ZSt4swapIxENSt9enable_ifIXsrSt6__and_IJSt6__not_ISt15__is_tuple_likeIT_EESt21is_move_constructibleIS4_ESt18is_move_assignableIS4_EEE5valueEvE4typeERS4_SE_
FNDA:0,_ZSt4swapIxENSt9enable_ifIXsrSt6__and_IJSt6__not_ISt15__is_tuple_likeIT_EESt21is_move_constructibleIS4_ESt18is_move_assignableIS4_EEE5valueEvE4typeERS4_SE_
DA:49,0
DA:50,0
DA:49,0
DA:50,0
DA:77,0
DA:78,0
DA:77,0
DA:78,0
DA:77,0
DA:78,0
DA:77,110
DA:78,110
DA:77,0
DA:78,0
DA:77,0
DA:78,0
DA:104,0
DA:105,0
DA:104,0
DA:105,0
DA:104,0
DA:105,0
DA:104,0
DA:105,0
DA:104,0
DA:105,0
DA:196,0
DA:204,0
DA:205,0
DA:206,0
DA:207,0
end_of_record
SF:C:
Users
USER
Documents
UFMG
6
teste
testes_tp
build/C:/Qt/Tools/mingw1120_64/lib/gcc/x86_64-w64-mingw32/11.2.0/include/c++/bits/stl_construct.h
FN:135,_ZSt8_DestroyI5QListI7QStringEEvPT_
FNDA:0,_ZSt8_DestroyI5QListI7QStringEEvPT_
FN:135,_ZSt8_DestroyI7QStringEvPT_
FNDA:0,_ZSt8_DestroyI7QStringEvPT_
FN:149,_ZNSt12_Destroy_auxILb0EE9__destroyIP5QListI7QStringEEEvT_S6_
FNDA:0,_ZNSt12_Destroy_auxILb0EE9__destroyIP5QListI7QStringEEEvT_S6_
FN:149,_ZNSt12_Destroy_auxILb0EE9__destroyIP7QStringEEvT_S4_
FNDA:0,_ZNSt12_Destroy_auxILb0EE9__destroyIP7QStringEEvT_S4_
FN:171,_ZSt8_DestroyIP5QListI7QStringEEvT_S4_
FNDA:0,_ZSt8_DestroyIP5QListI7QStringEEvT_S4_
FN:171,_ZSt8_DestroyIP7QStringEvT_S2_
FNDA:0,_ZSt8_DestroyIP7QStringEvT_S2_
FN:240,_ZSt7destroyIP5QListI7QStringEEvT_S4_
FNDA:0,_ZSt7destroyIP5QListI7QStringEEvT_S4_
FN:240,_ZSt7destroyIP7QStringEvT_S2_
FNDA:0,_ZSt7destroyIP7QStringEvT_S2_
DA:135,0
DA:140,0
DA:142,0
DA:135,0
DA:140,0
DA:142,0
DA:149,0
DA:151,0
DA:152,0
DA:153,0
DA:149,0
DA:151,0
DA:152,0
DA:153,0
DA:171,0
DA:185,0
DA:186,0
DA:171,0
DA:185,0
DA:186,0
DA:240,0
DA:242,0
DA:243,0
DA:240,0
DA:242,0
DA:243,0
end_of_record
SF:C:
Users
USER
Documents
UFMG
6
teste
testes_tp
build/C:/Qt/6.6.0/mingw_64/include/QtCore/qsize.h
FN:118,_ZN5QSizeC1Eii
FNDA:0,_ZN5QSizeC1Eii
DA:118,0
end_of_record
SF:C:
Users
USER
Documents
UFMG
6
teste
testes_tp
build/C:/Qt/Tools/mingw1120_64/lib/gcc/x86_64-w64-mingw32/11.2.0/include/c++/new
FN:174,_ZnwyPv
FNDA:0,_ZnwyPv
DA:174,0
DA:175,0
end_of_record
SF:C:
Users
USER
Documents
UFMG
6
teste
testes_tp
build/C:/Qt/Tools/mingw1120_64/lib/gcc/x86_64-w64-mingw32/11.2.0/include/c++/utility
FN:183,_ZNSt10__pair_getILy0EE10__move_getIP15QTypedArrayDataI5QListI7QStringEEPS5_EEOT_OSt4pairIS9_T0_E
FNDA:0,_ZNSt10__pair_getILy0EE10__move_getIP15QTypedArrayDataI5QListI7QStringEEPS5_EEOT_OSt4pairIS9_T0_E
FN:183,_ZNSt10__pair_getILy0EE10__move_getIP15QTypedArrayDataI7QStringEPS3_EEOT_OSt4pairIS7_T0_E
FNDA:0,_ZNSt10__pair_getILy0EE10__move_getIP15QTypedArrayDataI7QStringEPS3_EEOT_OSt4pairIS7_T0_E
FN:207,_ZNSt10__pair_getILy1EE10__move_getIP15QTypedArrayDataI5QListI7QStringEEPS5_EEOT0_OSt4pairIT_S9_E
FNDA:0,_ZNSt10__pair_getILy1EE10__move_getIP15QTypedArrayDataI5QListI7QStringEEPS5_EEOT0_OSt4pairIT_S9_E
FN:207,_ZNSt10__pair_getILy1EE10__move_getIP15QTypedArrayDataI7QStringEPS3_EEOT0_OSt4pairIT_S7_E
FNDA:0,_ZNSt10__pair_getILy1EE10__move_getIP15QTypedArrayDataI7QStringEPS3_EEOT0_OSt4pairIT_S7_E
FN:228,_ZSt3getILy1EP15QTypedArrayDataI5QListI7QStringEEPS3_EONSt13tuple_elementIXT_ESt4pairIT0_T1_EE4typeEOSB_
FNDA:0,_ZSt3getILy1EP15QTypedArrayDataI5QListI7QStringEEPS3_EONSt13tuple_elementIXT_ESt4pairIT0_T1_EE4typeEOSB_
FN:228,_ZSt3getILy0EP15QTypedArrayDataI5QListI7QStringEEPS3_EONSt13tuple_elementIXT_ESt4pairIT0_T1_EE4typeEOSB_
FNDA:0,_ZSt3getILy0EP15QTypedArrayDataI5QListI7QStringEEPS3_EONSt13tuple_elementIXT_ESt4pairIT0_T1_EE4typeEOSB_
FN:228,_ZSt3getILy1EP15QTypedArrayDataI7QStringEPS1_EONSt13tuple_elementIXT_ESt4pairIT0_T1_EE4typeEOS9_
FNDA:0,_ZSt3getILy1EP15QTypedArrayDataI7QStringEPS1_EONSt13tuple_elementIXT_ESt4pairIT0_T1_EE4typeEOS9_
FN:228,_ZSt3getILy0EP15QTypedArrayDataI7QStringEPS1_EONSt13tuple_elementIXT_ESt4pairIT0_T1_EE4typeEOS9_
FNDA:0,_ZSt3getILy0EP15QTypedArrayDataI7QStringEPS1_EONSt13tuple_elementIXT_ESt4pairIT0_T1_EE4typeEOS9_
DA:183,0
DA:184,0
DA:183,0
DA:184,0
DA:207,0
DA:208,0
DA:207,0
DA:208,0
DA:228,0
DA:229,0
DA:228,0
DA:229,0
DA:228,0
DA:229,0
DA:228,0
DA:229,0
end_of_record
SF:C:
Users
USER
Documents
UFMG
6
teste
testes_tp
build/C:/Qt/6.6.0/mingw_64/include/QtCore/qminmax.h
FN:42,_Z4qMaxIxERKT_S2_S2_
FNDA:0,_Z4qMaxIxERKT_S2_S2_
FN:58,_Z4qMaxIixEN11QTypeTraits6detail8PromotedIT_T0_NSt9enable_ifIXaaaaaaaaaaaaaa15is_arithmetic_vIS3_E15is_arithmetic_vIS4_Eeq19is_floating_point_vIS3_E19is_floating_point_vIS4_Eeq11is_signed_vIS3_E11is_signed_vIS4_Ent9is_same_vIS3_bEnt9is_same_vIS4_bEnt9is_same_vIS3_cEnt9is_same_vIS4_cEEvE4typeEE4typeERKS3_RKS4_
FNDA:0,_Z4qMaxIixEN11QTypeTraits6detail8PromotedIT_T0_NSt9enable_ifIXaaaaaaaaaaaaaa15is_arithmetic_vIS3_E15is_arithmetic_vIS4_Eeq19is_floating_point_vIS3_E19is_floating_point_vIS4_Eeq11is_signed_vIS3_E11is_signed_vIS4_Ent9is_same_vIS3_bEnt9is_same_vIS4_bEnt9is_same_vIS3_cEnt9is_same_vIS4_cEEvE4typeEE4typeERKS3_RKS4_
DA:42,0
DA:58,0
DA:61,0
DA:62,0
DA:63,0
end_of_record
SF:C:
Users
USER
Documents
UFMG
6
teste
testes_tp
build/C:/Qt/6.6.0/mingw_64/include/QtCore/qlist.h
FN:130,_ZN5QListIS_I7QStringEE8iteratorC1EPS1_
FNDA:0,_ZN5QListIS_I7QStringEE8iteratorC1EPS1_
FN:130,_ZN5QListI7QStringE8iteratorC1EPS0_
FNDA:0,_ZN5QListI7QStringE8iteratorC1EPS0_
FN:132,_ZNK5QListIS_I7QStringEE8iteratordeEv
FNDA:0,_ZNK5QListIS_I7QStringEE8iteratordeEv
FN:132,_ZNK5QListI7QStringE8iteratordeEv
FNDA:0,_ZNK5QListI7QStringE8iteratordeEv
FN:167,_ZNK5QListIS_I7QStringEE8iteratormiIiEENSt9enable_ifIX13is_integral_vIT_EES3_E4typeES6_
FNDA:0,_ZNK5QListIS_I7QStringEE8iteratormiIiEENSt9enable_ifIX13is_integral_vIT_EES3_E4typeES6_
FN:167,_ZNK5QListI7QStringE8iteratormiIiEENSt9enable_ifIX13is_integral_vIT_EES2_E4typeES5_
FNDA:0,_ZNK5QListI7QStringE8iteratormiIiEENSt9enable_ifIX13is_integral_vIT_EES2_E4typeES5_
FN:283,_ZN5QListI7QStringEC1ESt16initializer_listIS0_E
FNDA:0,_ZN5QListI7QStringEC1ESt16initializer_listIS0_E
FN:386,_ZNK5QListIS_I7QStringEE4sizeEv
FNDA:65,_ZNK5QListIS_I7QStringEE4sizeEv
FN:386,_ZNK5QListI7QStringE4sizeEv
FNDA:246,_ZNK5QListI7QStringE4sizeEv
FN:409,_ZN5QListIS_I7QStringEE6detachEv
FNDA:0,_ZN5QListIS_I7QStringEE6detachEv
FN:409,_ZN5QListI7QStringE6detachEv
FNDA:0,_ZN5QListI7QStringE6detachEv
FN:414,_ZN5QListIS_I7QStringEE4dataEv
FNDA:451,_ZN5QListIS_I7QStringEE4dataEv
FN:414,_ZN5QListI7QStringE4dataEv
FNDA:0,_ZN5QListI7QStringE4dataEv
FN:434,_ZN5QListI7QStringEixEx
FNDA:0,_ZN5QListI7QStringEixEx
FN:434,_ZN5QListIS_I7QStringEEixEx
FNDA:451,_ZN5QListIS_I7QStringEEixEx
FN:441,_ZN5QListIS_I7QStringEE6appendERKS1_
FNDA:0,_ZN5QListIS_I7QStringEE6appendERKS1_
FN:443,_ZN5QListI7QStringE6appendEOS0_
FNDA:55,_ZN5QListI7QStringE6appendEOS0_
FN:609,_ZN5QListI7QStringE3endEv
FNDA:0,_ZN5QListI7QStringE3endEv
FN:609,_ZN5QListIS_I7QStringEE3endEv
FNDA:0,_ZN5QListIS_I7QStringEE3endEv
FN:875,_ZN5QListIS_I7QStringEE11emplaceBackIJRKS1_EEERS1_DpOT_
FNDA:0,_ZN5QListIS_I7QStringEE11emplaceBackIJRKS1_EEERS1_DpOT_
FN:875,_ZN5QListI7QStringE11emplaceBackIJS0_EEERS0_DpOT_
FNDA:55,_ZN5QListI7QStringE11emplaceBackIJS0_EEERS0_DpOT_
DA:130,0
DA:130,0
DA:132,0
DA:132,0
DA:167,0
DA:167,0
DA:283,0
DA:284,0
DA:286,0
DA:287,0
DA:288,0
DA:386,246
DA:386,65
DA:409,0
DA:409,0
DA:414,0
DA:414,451
DA:434,0
DA:436,0
DA:438,0
DA:434,451
DA:436,451
DA:438,451
DA:441,0
DA:443,55
DA:448,55
DA:450,55
DA:609,0
DA:609,0
DA:875,0
DA:877,0
DA:878,0
DA:875,55
DA:877,55
DA:878,55
end_of_record
SF:C:
Users
USER
Documents
UFMG
6
teste
testes_tp
build/C:/Qt/6.6.0/mingw_64/include/QtCore/qswap.h
FN:43,_Z11qt_ptr_swapI5QListI7QStringEEvRPT_S5_
FNDA:0,_Z11qt_ptr_swapI5QListI7QStringEEvRPT_S5_
FN:43,_Z11qt_ptr_swapI15QTypedArrayDataI5QListI7QStringEEEvRPT_S7_
FNDA:0,_Z11qt_ptr_swapI15QTypedArrayDataI5QListI7QStringEEEvRPT_S7_
FN:43,_Z11qt_ptr_swapI7QStringEvRPT_S3_
FNDA:0,_Z11qt_ptr_swapI7QStringEvRPT_S3_
FN:43,_Z11qt_ptr_swapI15QTypedArrayDataI7QStringEEvRPT_S5_
FNDA:0,_Z11qt_ptr_swapI15QTypedArrayDataI7QStringEEvRPT_S5_
DA:43,0
DA:45,0
DA:46,0
DA:47,0
DA:48,0
DA:43,0
DA:45,0
DA:46,0
DA:47,0
DA:48,0
DA:43,0
DA:45,0
DA:46,0
DA:47,0
DA:48,0
DA:43,0
DA:45,0
DA:46,0
DA:47,0
DA:48,0
end_of_record
SF:C:
Users
USER
Documents
UFMG
6
teste
testes_tp
build/ui_pesquisar_na_agenda.h
FN:43,_ZN22Ui_pesquisar_na_agenda7setupUiEP7QDialog
FNDA:6,_ZN22Ui_pesquisar_na_agenda7setupUiEP7QDialog
FN:149,_ZN22Ui_pesquisar_na_agenda13retranslateUiEP7QDialog
FNDA:6,_ZN22Ui_pesquisar_na_agenda13retranslateUiEP7QDialog
DA:43,6
DA:45,6
DA:46,6
DA:47,6
DA:48,6
DA:49,6
DA:50,6
DA:51,6
DA:52,6
DA:53,6
DA:54,6
DA:55,6
DA:56,6
DA:58,6
DA:60,6
DA:61,6
DA:62,6
DA:63,6
DA:64,6
DA:69,6
DA:71,6
DA:72,6
DA:73,6
DA:75,6
DA:77,6
DA:78,6
DA:79,6
DA:86,6
DA:88,6
DA:89,6
DA:90,6
DA:97,6
DA:100,6
DA:102,6
DA:103,6
DA:104,6
DA:106,6
DA:108,6
DA:109,6
DA:110,6
DA:111,6
DA:112,6
DA:118,6
DA:120,6
DA:121,6
DA:122,6
DA:128,6
DA:130,6
DA:131,6
DA:132,6
DA:138,6
DA:141,6
DA:144,6
DA:146,6
DA:147,6
DA:149,6
DA:151,6
DA:152,6
DA:153,6
DA:154,6
DA:155,6
DA:156,6
DA:157,6
DA:158,6
DA:159,6
end_of_record
SF:C:
Users
USER
Documents
UFMG
6
teste
testes_tp
build/C:/Qt/6.6.0/mingw_64/include/QtCore/qarraydatapointer.h
FN:31,_ZN17QArrayDataPointerIDsEC1Ev
FNDA:0,_ZN17QArrayDataPointerIDsEC1Ev
FN:37,_ZN17QArrayDataPointerI7QStringEC1ERKS1_
FNDA:0,_ZN17QArrayDataPointerI7QStringEC1ERKS1_
FN:37,_ZN17QArrayDataPointerIDsEC1ERKS0_
FNDA:0,_ZN17QArrayDataPointerIDsEC1ERKS0_
FN:44,_ZN17QArrayDataPointerI7QStringEC1EP15QTypedArrayDataIS0_EPS0_x
FNDA:0,_ZN17QArrayDataPointerI7QStringEC1EP15QTypedArrayDataIS0_EPS0_x
FN:44,_ZN17QArrayDataPointerI5QListI7QStringEEC1EP15QTypedArrayDataIS2_EPS2_x
FNDA:0,_ZN17QArrayDataPointerI5QListI7QStringEEC1EP15QTypedArrayDataIS2_EPS2_x
FN:50,_ZN17QArrayDataPointerI7QStringEC1ESt4pairIP15QTypedArrayDataIS0_EPS0_Ex
FNDA:0,_ZN17QArrayDataPointerI7QStringEC1ESt4pairIP15QTypedArrayDataIS0_EPS0_Ex
FN:70,_ZN17QArrayDataPointerI7QStringEC1EOS1_
FNDA:0,_ZN17QArrayDataPointerI7QStringEC1EOS1_
FN:70,_ZN17QArrayDataPointerIDsEC1EOS0_
FNDA:0,_ZN17QArrayDataPointerIDsEC1EOS0_
FN:85,_ZN17QArrayDataPointerIDsEptEv
FNDA:0,_ZN17QArrayDataPointerIDsEptEv
FN:85,_ZN17QArrayDataPointerI5QListI7QStringEEptEv
FNDA:0,_ZN17QArrayDataPointerI5QListI7QStringEEptEv
FN:85,_ZN17QArrayDataPointerI7QStringEptEv
FNDA:0,_ZN17QArrayDataPointerI7QStringEptEv
FN:95,_ZNK17QArrayDataPointerI7QStringEptEv
FNDA:0,_ZNK17QArrayDataPointerI7QStringEptEv
FN:95,_ZNK17QArrayDataPointerI5QListI7QStringEEptEv
FNDA:0,_ZNK17QArrayDataPointerI5QListI7QStringEEptEv
FN:95,_ZNK17QArrayDataPointerIDsEptEv
FNDA:0,_ZNK17QArrayDataPointerIDsEptEv
FN:100,_ZN17QArrayDataPointerIDsED1Ev
FNDA:0,_ZN17QArrayDataPointerIDsED1Ev
FN:100,_ZN17QArrayDataPointerI5QListI7QStringEED1Ev
FNDA:0,_ZN17QArrayDataPointerI5QListI7QStringEED1Ev
FN:100,_ZN17QArrayDataPointerI7QStringED1Ev
FNDA:0,_ZN17QArrayDataPointerI7QStringED1Ev
FN:108,_ZNK17QArrayDataPointerIDsE6isNullEv
FNDA:0,_ZNK17QArrayDataPointerIDsE6isNullEv
FN:113,_ZN17QArrayDataPointerI5QListI7QStringEE4dataEv
FNDA:0,_ZN17QArrayDataPointerI5QListI7QStringEE4dataEv
FN:113,_ZN17QArrayDataPointerI7QStringE4dataEv
FNDA:0,_ZN17QArrayDataPointerI7QStringE4dataEv
FN:114,_ZNK17QArrayDataPointerIDsE4dataEv
FNDA:0,_ZNK17QArrayDataPointerIDsE4dataEv
FN:114,_ZNK17QArrayDataPointerI5QListI7QStringEE4dataEv
FNDA:0,_ZNK17QArrayDataPointerI5QListI7QStringEE4dataEv
FN:114,_ZNK17QArrayDataPointerI7QStringE4dataEv
FNDA:0,_ZNK17QArrayDataPointerI7QStringE4dataEv
FN:116,_ZN17QArrayDataPointerI7QStringE5beginEv
FNDA:0,_ZN17QArrayDataPointerI7QStringE5beginEv
FN:116,_ZN17QArrayDataPointerI5QListI7QStringEE5beginEv
FNDA:0,_ZN17QArrayDataPointerI5QListI7QStringEE5beginEv
FN:117,_ZN17QArrayDataPointerI7QStringE3endEv
FNDA:0,_ZN17QArrayDataPointerI7QStringE3endEv
FN:117,_ZN17QArrayDataPointerI5QListI7QStringEE3endEv
FNDA:0,_ZN17QArrayDataPointerI5QListI7QStringEE3endEv
FN:118,_ZNK17QArrayDataPointerI5QListI7QStringEE5beginEv
FNDA:0,_ZNK17QArrayDataPointerI5QListI7QStringEE5beginEv
FN:118,_ZNK17QArrayDataPointerI7QStringE5beginEv
FNDA:0,_ZNK17QArrayDataPointerI7QStringE5beginEv
FN:119,_ZNK17QArrayDataPointerI5QListI7QStringEE3endEv
FNDA:0,_ZNK17QArrayDataPointerI5QListI7QStringEE3endEv
FN:119,_ZNK17QArrayDataPointerI7QStringE3endEv
FNDA:0,_ZNK17QArrayDataPointerI7QStringE3endEv
FN:123,_ZN17QArrayDataPointerI7QStringE4swapERS1_
FNDA:0,_ZN17QArrayDataPointerI7QStringE4swapERS1_
FN:123,_ZN17QArrayDataPointerI5QListI7QStringEE4swapERS3_
FNDA:0,_ZN17QArrayDataPointerI5QListI7QStringEE4swapERS3_
FN:136,_ZN17QArrayDataPointerI5QListI7QStringEE6detachEPS3_
FNDA:0,_ZN17QArrayDataPointerI5QListI7QStringEE6detachEPS3_
FN:136,_ZN17QArrayDataPointerI7QStringE6detachEPS1_
FNDA:0,_ZN17QArrayDataPointerI7QStringE6detachEPS1_
FN:187,_ZN17QArrayDataPointerI7QStringE13detachAndGrowEN10QArrayData14GrowthPositionExPPKS0_PS1_
FNDA:0,_ZN17QArrayDataPointerI7QStringE13detachAndGrowEN10QArrayData14GrowthPositionExPPKS0_PS1_
FN:187,_ZN17QArrayDataPointerI5QListI7QStringEE13detachAndGrowEN10QArrayData14GrowthPositionExPPKS2_PS3_
FNDA:0,_ZN17QArrayDataPointerI5QListI7QStringEE13detachAndGrowEN10QArrayData14GrowthPositionExPPKS2_PS3_
FN:212,_ZN17QArrayDataPointerI7QStringE17reallocateAndGrowEN10QArrayData14GrowthPositionExPS1_
FNDA:0,_ZN17QArrayDataPointerI7QStringE17reallocateAndGrowEN10QArrayData14GrowthPositionExPS1_
FN:212,_ZN17QArrayDataPointerI5QListI7QStringEE17reallocateAndGrowEN10QArrayData14GrowthPositionExPS3_
FNDA:0,_ZN17QArrayDataPointerI5QListI7QStringEE17reallocateAndGrowEN10QArrayData14GrowthPositionExPS3_
FN:263,_ZN17QArrayDataPointerI7QStringE20tryReadjustFreeSpaceEN10QArrayData14GrowthPositionExPPKS0_
FNDA:0,_ZN17QArrayDataPointerI7QStringE20tryReadjustFreeSpaceEN10QArrayData14GrowthPositionExPPKS0_
FN:263,_ZN17QArrayDataPointerI5QListI7QStringEE20tryReadjustFreeSpaceEN10QArrayData14GrowthPositionExPPKS2_
FNDA:0,_ZN17QArrayDataPointerI5QListI7QStringEE20tryReadjustFreeSpaceEN10QArrayData14GrowthPositionExPPKS2_
FN:307,_ZN17QArrayDataPointerI5QListI7QStringEE8relocateExPPKS2_
FNDA:0,_ZN17QArrayDataPointerI5QListI7QStringEE8relocateExPPKS2_
FN:307,_ZN17QArrayDataPointerI7QStringE8relocateExPPKS0_
FNDA:0,_ZN17QArrayDataPointerI7QStringE8relocateExPPKS0_
FN:411,_ZNK17QArrayDataPointerI7QStringE22constAllocatedCapacityEv
FNDA:0,_ZNK17QArrayDataPointerI7QStringE22constAllocatedCapacityEv
FN:411,_ZNK17QArrayDataPointerI5QListI7QStringEE22constAllocatedCapacityEv
FNDA:0,_ZNK17QArrayDataPointerI5QListI7QStringEE22constAllocatedCapacityEv
FN:412,_ZN17QArrayDataPointerI7QStringE3refEv
FNDA:0,_ZN17QArrayDataPointerI7QStringE3refEv
FN:412,_ZN17QArrayDataPointerIDsE3refEv
FNDA:0,_ZN17QArrayDataPointerIDsE3refEv
FN:413,_ZN17QArrayDataPointerIDsE5derefEv
FNDA:0,_ZN17QArrayDataPointerIDsE5derefEv
FN:413,_ZN17QArrayDataPointerI5QListI7QStringEE5derefEv
FNDA:0,_ZN17QArrayDataPointerI5QListI7QStringEE5derefEv
FN:413,_ZN17QArrayDataPointerI7QStringE5derefEv
FNDA:0,_ZN17QArrayDataPointerI7QStringE5derefEv
FN:414,_ZNK17QArrayDataPointerI7QStringE9isMutableEv
FNDA:0,_ZNK17QArrayDataPointerI7QStringE9isMutableEv
FN:414,_ZNK17QArrayDataPointerI5QListI7QStringEE9isMutableEv
FNDA:0,_ZNK17QArrayDataPointerI5QListI7QStringEE9isMutableEv
FN:415,_ZNK17QArrayDataPointerI5QListI7QStringEE8isSharedEv
FNDA:0,_ZNK17QArrayDataPointerI5QListI7QStringEE8isSharedEv
FN:415,_ZNK17QArrayDataPointerI7QStringE8isSharedEv
FNDA:0,_ZNK17QArrayDataPointerI7QStringE8isSharedEv
FN:417,_ZNK17QArrayDataPointerI7QStringE11needsDetachEv
FNDA:0,_ZNK17QArrayDataPointerI7QStringE11needsDetachEv
FN:417,_ZNK17QArrayDataPointerI5QListI7QStringEE11needsDetachEv
FNDA:0,_ZNK17QArrayDataPointerI5QListI7QStringEE11needsDetachEv
FN:418,_ZNK17QArrayDataPointerI7QStringE14detachCapacityEx
FNDA:0,_ZNK17QArrayDataPointerI7QStringE14detachCapacityEx
FN:418,_ZNK17QArrayDataPointerI5QListI7QStringEE14detachCapacityEx
FNDA:0,_ZNK17QArrayDataPointerI5QListI7QStringEE14detachCapacityEx
FN:419,_ZNK17QArrayDataPointerI7QStringE5flagsEv
FNDA:0,_ZNK17QArrayDataPointerI7QStringE5flagsEv
FN:419,_ZNK17QArrayDataPointerI5QListI7QStringEE5flagsEv
FNDA:0,_ZNK17QArrayDataPointerI5QListI7QStringEE5flagsEv
FN:426,_ZNK17QArrayDataPointerI7QStringE16freeSpaceAtBeginEv
FNDA:0,_ZNK17QArrayDataPointerI7QStringE16freeSpaceAtBeginEv
FN:426,_ZNK17QArrayDataPointerI5QListI7QStringEE16freeSpaceAtBeginEv
FNDA:0,_ZNK17QArrayDataPointerI5QListI7QStringEE16freeSpaceAtBeginEv
FN:433,_ZNK17QArrayDataPointerI7QStringE14freeSpaceAtEndEv
FNDA:0,_ZNK17QArrayDataPointerI7QStringE14freeSpaceAtEndEv
FN:433,_ZNK17QArrayDataPointerI5QListI7QStringEE14freeSpaceAtEndEv
FNDA:0,_ZNK17QArrayDataPointerI5QListI7QStringEE14freeSpaceAtEndEv
FN:441,_ZN17QArrayDataPointerI5QListI7QStringEE12allocateGrowERKS3_xN10QArrayData14GrowthPositionE
FNDA:0,_ZN17QArrayDataPointerI5QListI7QStringEE12allocateGrowERKS3_xN10QArrayData14GrowthPositionE
FN:441,_ZN17QArrayDataPointerI7QStringE12allocateGrowERKS1_xN10QArrayData14GrowthPositionE
FNDA:0,_ZN17QArrayDataPointerI7QStringE12allocateGrowERKS1_xN10QArrayData14GrowthPositionE
DA:31,0
DA:32,0
DA:34,0
DA:37,0
DA:38,0
DA:40,0
DA:41,0
DA:37,0
DA:38,0
DA:40,0
DA:41,0
DA:44,0
DA:45,0
DA:47,0
DA:44,0
DA:45,0
DA:47,0
DA:50,0
DA:51,0
DA:53,0
DA:70,0
DA:71,0
DA:73,0
DA:74,0
DA:75,0
DA:76,0
DA:70,0
DA:71,0
DA:73,0
DA:74,0
DA:75,0
DA:76,0
DA:85,0
DA:87,0
DA:85,0
DA:87,0
DA:85,0
DA:87,0
DA:95,0
DA:97,0
DA:95,0
DA:97,0
DA:95,0
DA:97,0
DA:100,0
DA:102,0
DA:103,0
DA:104,0
DA:106,0
DA:100,0
DA:102,0
DA:103,0
DA:104,0
DA:106,0
DA:100,0
DA:102,0
DA:103,0
DA:104,0
DA:106,0
DA:108,0
DA:110,0
DA:113,0
DA:113,0
DA:114,0
DA:114,0
DA:114,0
DA:116,0
DA:116,0
DA:117,0
DA:117,0
DA:118,0
DA:118,0
DA:119,0
DA:119,0
DA:123,0
DA:125,0
DA:126,0
DA:127,0
DA:128,0
DA:123,0
DA:125,0
DA:126,0
DA:127,0
DA:128,0
DA:136,0
DA:138,0
DA:139,0
DA:140,0
DA:136,0
DA:138,0
DA:139,0
DA:140,0
DA:187,0
DA:190,0
DA:191,0
DA:192,0
DA:193,0
DA:194,0
DA:195,0
DA:196,0
DA:197,0
DA:202,0
DA:203,0
DA:187,0
DA:190,0
DA:191,0
DA:192,0
DA:193,0
DA:194,0
DA:195,0
DA:196,0
DA:197,0
DA:202,0
DA:203,0
DA:212,0
DA:216,0
DA:217,0
DA:218,0
DA:222,0
DA:223,0
DA:224,0
DA:225,0
DA:226,0
DA:228,0
DA:230,0
DA:231,0
DA:232,0
DA:233,0
DA:234,0
DA:235,0
DA:237,0
DA:238,0
DA:241,0
DA:242,0
DA:243,0
DA:244,0
DA:212,0
DA:216,0
DA:217,0
DA:218,0
DA:222,0
DA:223,0
DA:224,0
DA:225,0
DA:226,0
DA:228,0
DA:230,0
DA:231,0
DA:232,0
DA:233,0
DA:234,0
DA:235,0
DA:237,0
DA:238,0
DA:241,0
DA:242,0
DA:243,0
DA:244,0
DA:263,0
DA:265,0
DA:266,0
DA:267,0
DA:270,0
DA:271,0
DA:272,0
DA:274,0
DA:283,0
DA:284,0
DA:286,0
DA:287,0
DA:289,0
DA:292,0
DA:295,0
DA:297,0
DA:299,0
DA:263,0
DA:265,0
DA:266,0
DA:267,0
DA:270,0
DA:271,0
DA:272,0
DA:274,0
DA:283,0
DA:284,0
DA:286,0
DA:287,0
DA:289,0
DA:292,0
DA:295,0
DA:297,0
DA:299,0
DA:307,0
DA:309,0
DA:310,0
DA:312,0
DA:313,0
DA:314,0
DA:315,0
DA:307,0
DA:309,0
DA:310,0
DA:312,0
DA:313,0
DA:314,0
DA:315,0
DA:411,0
DA:411,0
DA:412,0
DA:412,0
DA:413,0
DA:413,0
DA:413,0
DA:414,0
DA:414,0
DA:415,0
DA:415,0
DA:417,0
DA:417,0
DA:418,0
DA:418,0
DA:419,0
DA:419,0
DA:426,0
DA:428,0
DA:429,0
DA:430,0
DA:426,0
DA:428,0
DA:429,0
DA:430,0
DA:433,0
DA:435,0
DA:436,0
DA:437,0
DA:433,0
DA:435,0
DA:436,0
DA:437,0
DA:441,0
DA:447,0
DA:450,0
DA:451,0
DA:452,0
DA:453,0
DA:454,0
DA:455,0
DA:456,0
DA:460,0
DA:461,0
DA:462,0
DA:463,0
DA:464,0
DA:441,0
DA:447,0
DA:450,0
DA:451,0
DA:452,0
DA:453,0
DA:454,0
DA:455,0
DA:456,0
DA:460,0
DA:461,0
DA:462,0
DA:463,0
DA:464,0
end_of_record
SF:C:
Users
USER
Documents
UFMG
6
teste
testes_tp
build/C:/Qt/6.6.0/mingw_64/include/QtCore/qstringview.h
FN:137,_ZN11QStringView10castHelperI5QCharEEPKDsPKT_
FNDA:0,_ZN11QStringView10castHelperI5QCharEEPKDsPKT_
FN:148,_ZN11QStringViewC1I5QCharLb1EEEPKT_x
FNDA:0,_ZN11QStringViewC1I5QCharLb1EEEPKT_x
FN:179,_ZN11QStringViewC1I7QStringLb1EEERKT_
FNDA:0,_ZN11QStringViewC1I7QStringLb1EEERKT_
DA:137,0
DA:138,0
DA:148,0
DA:153,0
DA:154,0
DA:156,0
DA:179,0
DA:180,0
end_of_record
TN:
SF:C:
Users
USER
Documents
UFMG
6
teste
testes_tp
build/C:/Qt/6.6.0/mingw_64/include/QtCore/qswap.h
FN:43,_Z11qt_ptr_swapI7QStringEvRPT_S3_
FNDA:0,_Z11qt_ptr_swapI7QStringEvRPT_S3_
FN:43,_Z11qt_ptr_swapI15QTypedArrayDataI7QStringEEvRPT_S5_
FNDA:0,_Z11qt_ptr_swapI15QTypedArrayDataI7QStringEEvRPT_S5_
FN:43,_Z11qt_ptr_swapI5QListI7QStringEEvRPT_S5_
FNDA:0,_Z11qt_ptr_swapI5QListI7QStringEEvRPT_S5_
FN:43,_Z11qt_ptr_swapI15QTypedArrayDataI5QListI7QStringEEEvRPT_S7_
FNDA:0,_Z11qt_ptr_swapI15QTypedArrayDataI5QListI7QStringEEEvRPT_S7_
DA:43,0
DA:45,0
DA:46,0
DA:47,0
DA:48,0
DA:43,0
DA:45,0
DA:46,0
DA:47,0
DA:48,0
DA:43,0
DA:45,0
DA:46,0
DA:47,0
DA:48,0
DA:43,0
DA:45,0
DA:46,0
DA:47,0
DA:48,0
end_of_record
SF:C:
Users
USER
Documents
UFMG
6
teste
testes_tp
build/C:/Qt/6.6.0/mingw_64/include/QtCore/qarraydatapointer.h
FN:37,_ZN17QArrayDataPointerIDsEC1ERKS0_
FNDA:0,_ZN17QArrayDataPointerIDsEC1ERKS0_
FN:37,_ZN17QArrayDataPointerI7QStringEC1ERKS1_
FNDA:0,_ZN17QArrayDataPointerI7QStringEC1ERKS1_
FN:44,_ZN17QArrayDataPointerI7QStringEC1EP15QTypedArrayDataIS0_EPS0_x
FNDA:0,_ZN17QArrayDataPointerI7QStringEC1EP15QTypedArrayDataIS0_EPS0_x
FN:44,_ZN17QArrayDataPointerI5QListI7QStringEEC1EP15QTypedArrayDataIS2_EPS2_x
FNDA:0,_ZN17QArrayDataPointerI5QListI7QStringEEC1EP15QTypedArrayDataIS2_EPS2_x
FN:50,_ZN17QArrayDataPointerI7QStringEC1ESt4pairIP15QTypedArrayDataIS0_EPS0_Ex
FNDA:0,_ZN17QArrayDataPointerI7QStringEC1ESt4pairIP15QTypedArrayDataIS0_EPS0_Ex
FN:70,_ZN17QArrayDataPointerI7QStringEC1EOS1_
FNDA:0,_ZN17QArrayDataPointerI7QStringEC1EOS1_
FN:70,_ZN17QArrayDataPointerIDsEC1EOS0_
FNDA:0,_ZN17QArrayDataPointerIDsEC1EOS0_
FN:85,_ZN17QArrayDataPointerI7QStringEptEv
FNDA:0,_ZN17QArrayDataPointerI7QStringEptEv
FN:85,_ZN17QArrayDataPointerIDsEptEv
FNDA:0,_ZN17QArrayDataPointerIDsEptEv
FN:85,_ZN17QArrayDataPointerI5QListI7QStringEEptEv
FNDA:0,_ZN17QArrayDataPointerI5QListI7QStringEEptEv
FN:95,_ZNK17QArrayDataPointerI7QStringEptEv
FNDA:0,_ZNK17QArrayDataPointerI7QStringEptEv
FN:95,_ZNK17QArrayDataPointerI5QListI7QStringEEptEv
FNDA:0,_ZNK17QArrayDataPointerI5QListI7QStringEEptEv
FN:100,_ZN17QArrayDataPointerIDsED1Ev
FNDA:0,_ZN17QArrayDataPointerIDsED1Ev
FN:100,_ZN17QArrayDataPointerI7QStringED1Ev
FNDA:0,_ZN17QArrayDataPointerI7QStringED1Ev
FN:100,_ZN17QArrayDataPointerI5QListI7QStringEED1Ev
FNDA:0,_ZN17QArrayDataPointerI5QListI7QStringEED1Ev
FN:113,_ZN17QArrayDataPointerI5QListI7QStringEE4dataEv
FNDA:0,_ZN17QArrayDataPointerI5QListI7QStringEE4dataEv
FN:113,_ZN17QArrayDataPointerI7QStringE4dataEv
FNDA:0,_ZN17QArrayDataPointerI7QStringE4dataEv
FN:116,_ZN17QArrayDataPointerI5QListI7QStringEE5beginEv
FNDA:0,_ZN17QArrayDataPointerI5QListI7QStringEE5beginEv
FN:116,_ZN17QArrayDataPointerI7QStringE5beginEv
FNDA:0,_ZN17QArrayDataPointerI7QStringE5beginEv
FN:117,_ZN17QArrayDataPointerI5QListI7QStringEE3endEv
FNDA:0,_ZN17QArrayDataPointerI5QListI7QStringEE3endEv
FN:117,_ZN17QArrayDataPointerI7QStringE3endEv
FNDA:0,_ZN17QArrayDataPointerI7QStringE3endEv
FN:123,_ZN17QArrayDataPointerI5QListI7QStringEE4swapERS3_
FNDA:0,_ZN17QArrayDataPointerI5QListI7QStringEE4swapERS3_
FN:123,_ZN17QArrayDataPointerI7QStringE4swapERS1_
FNDA:0,_ZN17QArrayDataPointerI7QStringE4swapERS1_
FN:136,_ZN17QArrayDataPointerI7QStringE6detachEPS1_
FNDA:0,_ZN17QArrayDataPointerI7QStringE6detachEPS1_
FN:136,_ZN17QArrayDataPointerI5QListI7QStringEE6detachEPS3_
FNDA:0,_ZN17QArrayDataPointerI5QListI7QStringEE6detachEPS3_
FN:212,_ZN17QArrayDataPointerI5QListI7QStringEE17reallocateAndGrowEN10QArrayData14GrowthPositionExPS3_
FNDA:0,_ZN17QArrayDataPointerI5QListI7QStringEE17reallocateAndGrowEN10QArrayData14GrowthPositionExPS3_
FN:212,_ZN17QArrayDataPointerI7QStringE17reallocateAndGrowEN10QArrayData14GrowthPositionExPS1_
FNDA:0,_ZN17QArrayDataPointerI7QStringE17reallocateAndGrowEN10QArrayData14GrowthPositionExPS1_
FN:411,_ZNK17QArrayDataPointerI5QListI7QStringEE22constAllocatedCapacityEv
FNDA:0,_ZNK17QArrayDataPointerI5QListI7QStringEE22constAllocatedCapacityEv
FN:411,_ZNK17QArrayDataPointerI7QStringE22constAllocatedCapacityEv
FNDA:0,_ZNK17QArrayDataPointerI7QStringE22constAllocatedCapacityEv
FN:412,_ZN17QArrayDataPointerIDsE3refEv
FNDA:0,_ZN17QArrayDataPointerIDsE3refEv
FN:412,_ZN17QArrayDataPointerI7QStringE3refEv
FNDA:0,_ZN17QArrayDataPointerI7QStringE3refEv
FN:413,_ZN17QArrayDataPointerIDsE5derefEv
FNDA:0,_ZN17QArrayDataPointerIDsE5derefEv
FN:413,_ZN17QArrayDataPointerI5QListI7QStringEE5derefEv
FNDA:0,_ZN17QArrayDataPointerI5QListI7QStringEE5derefEv
FN:413,_ZN17QArrayDataPointerI7QStringE5derefEv
FNDA:0,_ZN17QArrayDataPointerI7QStringE5derefEv
FN:414,_ZNK17QArrayDataPointerI7QStringE9isMutableEv
FNDA:0,_ZNK17QArrayDataPointerI7QStringE9isMutableEv
FN:414,_ZNK17QArrayDataPointerI5QListI7QStringEE9isMutableEv
FNDA:0,_ZNK17QArrayDataPointerI5QListI7QStringEE9isMutableEv
FN:415,_ZNK17QArrayDataPointerI7QStringE8isSharedEv
FNDA:0,_ZNK17QArrayDataPointerI7QStringE8isSharedEv
FN:415,_ZNK17QArrayDataPointerI5QListI7QStringEE8isSharedEv
FNDA:0,_ZNK17QArrayDataPointerI5QListI7QStringEE8isSharedEv
FN:417,_ZNK17QArrayDataPointerI5QListI7QStringEE11needsDetachEv
FNDA:0,_ZNK17QArrayDataPointerI5QListI7QStringEE11needsDetachEv
FN:417,_ZNK17QArrayDataPointerI7QStringE11needsDetachEv
FNDA:0,_ZNK17QArrayDataPointerI7QStringE11needsDetachEv
FN:418,_ZNK17QArrayDataPointerI5QListI7QStringEE14detachCapacityEx
FNDA:0,_ZNK17QArrayDataPointerI5QListI7QStringEE14detachCapacityEx
FN:418,_ZNK17QArrayDataPointerI7QStringE14detachCapacityEx
FNDA:0,_ZNK17QArrayDataPointerI7QStringE14detachCapacityEx
FN:419,_ZNK17QArrayDataPointerI7QStringE5flagsEv
FNDA:0,_ZNK17QArrayDataPointerI7QStringE5flagsEv
FN:419,_ZNK17QArrayDataPointerI5QListI7QStringEE5flagsEv
FNDA:0,_ZNK17QArrayDataPointerI5QListI7QStringEE5flagsEv
FN:426,_ZNK17QArrayDataPointerI7QStringE16freeSpaceAtBeginEv
FNDA:0,_ZNK17QArrayDataPointerI7QStringE16freeSpaceAtBeginEv
FN:426,_ZNK17QArrayDataPointerI5QListI7QStringEE16freeSpaceAtBeginEv
FNDA:0,_ZNK17QArrayDataPointerI5QListI7QStringEE16freeSpaceAtBeginEv
FN:433,_ZNK17QArrayDataPointerI7QStringE14freeSpaceAtEndEv
FNDA:0,_ZNK17QArrayDataPointerI7QStringE14freeSpaceAtEndEv
FN:433,_ZNK17QArrayDataPointerI5QListI7QStringEE14freeSpaceAtEndEv
FNDA:0,_ZNK17QArrayDataPointerI5QListI7QStringEE14freeSpaceAtEndEv
FN:441,_ZN17QArrayDataPointerI5QListI7QStringEE12allocateGrowERKS3_xN10QArrayData14GrowthPositionE
FNDA:0,_ZN17QArrayDataPointerI5QListI7QStringEE12allocateGrowERKS3_xN10QArrayData14GrowthPositionE
FN:441,_ZN17QArrayDataPointerI7QStringE12allocateGrowERKS1_xN10QArrayData14GrowthPositionE
FNDA:0,_ZN17QArrayDataPointerI7QStringE12allocateGrowERKS1_xN10QArrayData14GrowthPositionE
DA:37,0
DA:38,0
DA:40,0
DA:41,0
DA:37,0
DA:38,0
DA:40,0
DA:41,0
DA:44,0
DA:45,0
DA:47,0
DA:44,0
DA:45,0
DA:47,0
DA:50,0
DA:51,0
DA:53,0
DA:70,0
DA:71,0
DA:73,0
DA:74,0
DA:75,0
DA:76,0
DA:70,0
DA:71,0
DA:73,0
DA:74,0
DA:75,0
DA:76,0
DA:85,0
DA:87,0
DA:85,0
DA:87,0
DA:85,0
DA:87,0
DA:95,0
DA:97,0
DA:95,0
DA:97,0
DA:100,0
DA:102,0
DA:103,0
DA:104,0
DA:106,0
DA:100,0
DA:102,0
DA:103,0
DA:104,0
DA:106,0
DA:100,0
DA:102,0
DA:103,0
DA:104,0
DA:106,0
DA:113,0
DA:113,0
DA:116,0
DA:116,0
DA:117,0
DA:117,0
DA:123,0
DA:125,0
DA:126,0
DA:127,0
DA:128,0
DA:123,0
DA:125,0
DA:126,0
DA:127,0
DA:128,0
DA:136,0
DA:138,0
DA:139,0
DA:140,0
DA:136,0
DA:138,0
DA:139,0
DA:140,0
DA:212,0
DA:216,0
DA:217,0
DA:218,0
DA:222,0
DA:223,0
DA:224,0
DA:225,0
DA:226,0
DA:228,0
DA:230,0
DA:231,0
DA:232,0
DA:233,0
DA:234,0
DA:235,0
DA:237,0
DA:238,0
DA:241,0
DA:242,0
DA:243,0
DA:244,0
DA:212,0
DA:216,0
DA:217,0
DA:218,0
DA:222,0
DA:223,0
DA:224,0
DA:225,0
DA:226,0
DA:228,0
DA:230,0
DA:231,0
DA:232,0
DA:233,0
DA:234,0
DA:235,0
DA:237,0
DA:238,0
DA:241,0
DA:242,0
DA:243,0
DA:244,0
DA:411,0
DA:411,0
DA:412,0
DA:412,0
DA:413,0
DA:413,0
DA:413,0
DA:414,0
DA:414,0
DA:415,0
DA:415,0
DA:417,0
DA:417,0
DA:418,0
DA:418,0
DA:419,0
DA:419,0
DA:426,0
DA:428,0
DA:429,0
DA:430,0
DA:426,0
DA:428,0
DA:429,0
DA:430,0
DA:433,0
DA:435,0
DA:436,0
DA:437,0
DA:433,0
DA:435,0
DA:436,0
DA:437,0
DA:441,0
DA:447,0
DA:450,0
DA:451,0
DA:452,0
DA:453,0
DA:454,0
DA:455,0
DA:456,0
DA:460,0
DA:461,0
DA:462,0
DA:463,0
DA:464,0
DA:441,0
DA:447,0
DA:450,0
DA:451,0
DA:452,0
DA:453,0
DA:454,0
DA:455,0
DA:456,0
DA:460,0
DA:461,0
DA:462,0
DA:463,0
DA:464,0
end_of_record
SF:C:
Users
USER
Documents
UFMG
6
teste
testes_tp
build/C:/Qt/Tools/mingw1120_64/lib/gcc/x86_64-w64-mingw32/11.2.0/include/c++/new
FN:174,_ZnwyPv
FNDA:0,_ZnwyPv
DA:174,0
DA:175,0
end_of_record
SF:C:
Users
USER
Documents
UFMG
6
teste
testes_tp
build/C:/Qt/Tools/mingw1120_64/lib/gcc/x86_64-w64-mingw32/11.2.0/include/c++/utility
FN:183,_ZNSt10__pair_getILy0EE10__move_getIP15QTypedArrayDataI7QStringEPS3_EEOT_OSt4pairIS7_T0_E
FNDA:0,_ZNSt10__pair_getILy0EE10__move_getIP15QTypedArrayDataI7QStringEPS3_EEOT_OSt4pairIS7_T0_E
FN:183,_ZNSt10__pair_getILy0EE10__move_getIP15QTypedArrayDataI5QListI7QStringEEPS5_EEOT_OSt4pairIS9_T0_E
FNDA:0,_ZNSt10__pair_getILy0EE10__move_getIP15QTypedArrayDataI5QListI7QStringEEPS5_EEOT_OSt4pairIS9_T0_E
FN:207,_ZNSt10__pair_getILy1EE10__move_getIP15QTypedArrayDataI7QStringEPS3_EEOT0_OSt4pairIT_S7_E
FNDA:0,_ZNSt10__pair_getILy1EE10__move_getIP15QTypedArrayDataI7QStringEPS3_EEOT0_OSt4pairIT_S7_E
FN:207,_ZNSt10__pair_getILy1EE10__move_getIP15QTypedArrayDataI5QListI7QStringEEPS5_EEOT0_OSt4pairIT_S9_E
FNDA:0,_ZNSt10__pair_getILy1EE10__move_getIP15QTypedArrayDataI5QListI7QStringEEPS5_EEOT0_OSt4pairIT_S9_E
FN:228,_ZSt3getILy1EP15QTypedArrayDataI7QStringEPS1_EONSt13tuple_elementIXT_ESt4pairIT0_T1_EE4typeEOS9_
FNDA:0,_ZSt3getILy1EP15QTypedArrayDataI7QStringEPS1_EONSt13tuple_elementIXT_ESt4pairIT0_T1_EE4typeEOS9_
FN:228,_ZSt3getILy0EP15QTypedArrayDataI7QStringEPS1_EONSt13tuple_elementIXT_ESt4pairIT0_T1_EE4typeEOS9_
FNDA:0,_ZSt3getILy0EP15QTypedArrayDataI7QStringEPS1_EONSt13tuple_elementIXT_ESt4pairIT0_T1_EE4typeEOS9_
FN:228,_ZSt3getILy1EP15QTypedArrayDataI5QListI7QStringEEPS3_EONSt13tuple_elementIXT_ESt4pairIT0_T1_EE4typeEOSB_
FNDA:0,_ZSt3getILy1EP15QTypedArrayDataI5QListI7QStringEEPS3_EONSt13tuple_elementIXT_ESt4pairIT0_T1_EE4typeEOSB_
FN:228,_ZSt3getILy0EP15QTypedArrayDataI5QListI7QStringEEPS3_EONSt13tuple_elementIXT_ESt4pairIT0_T1_EE4typeEOSB_
FNDA:0,_ZSt3getILy0EP15QTypedArrayDataI5QListI7QStringEEPS3_EONSt13tuple_elementIXT_ESt4pairIT0_T1_EE4typeEOSB_
DA:183,0
DA:184,0
DA:183,0
DA:184,0
DA:207,0
DA:208,0
DA:207,0
DA:208,0
DA:228,0
DA:229,0
DA:228,0
DA:229,0
DA:228,0
DA:229,0
DA:228,0
DA:229,0
end_of_record
SF:C:
Users
USER
Documents
UFMG
6
teste
testes_tp
build/C:/Qt/6.6.0/mingw_64/include/QtCore/qminmax.h
FN:42,_Z4qMaxIxERKT_S2_S2_
FNDA:0,_Z4qMaxIxERKT_S2_S2_
FN:58,_Z4qMaxIixEN11QTypeTraits6detail8PromotedIT_T0_NSt9enable_ifIXaaaaaaaaaaaaaa15is_arithmetic_vIS3_E15is_arithmetic_vIS4_Eeq19is_floating_point_vIS3_E19is_floating_point_vIS4_Eeq11is_signed_vIS3_E11is_signed_vIS4_Ent9is_same_vIS3_bEnt9is_same_vIS4_bEnt9is_same_vIS3_cEnt9is_same_vIS4_cEEvE4typeEE4typeERKS3_RKS4_
FNDA:0,_Z4qMaxIixEN11QTypeTraits6detail8PromotedIT_T0_NSt9enable_ifIXaaaaaaaaaaaaaa15is_arithmetic_vIS3_E15is_arithmetic_vIS4_Eeq19is_floating_point_vIS3_E19is_floating_point_vIS4_Eeq11is_signed_vIS3_E11is_signed_vIS4_Ent9is_same_vIS3_bEnt9is_same_vIS4_bEnt9is_same_vIS3_cEnt9is_same_vIS4_cEEvE4typeEE4typeERKS3_RKS4_
DA:42,0
DA:58,0
DA:61,0
DA:62,0
DA:63,0
end_of_record
SF:C:
Users
USER
Documents
UFMG
6
teste
testes_tp
build/C:/Qt/6.6.0/mingw_64/include/QtCore/qlist.h
FN:283,_ZN5QListI7QStringEC1ESt16initializer_listIS0_E
FNDA:0,_ZN5QListI7QStringEC1ESt16initializer_listIS0_E
FN:386,_ZNK5QListI7QStringE4sizeEv
FNDA:0,_ZNK5QListI7QStringE4sizeEv
FN:386,_ZNK5QListIS_I7QStringEE4sizeEv
FNDA:0,_ZNK5QListIS_I7QStringEE4sizeEv
FN:409,_ZN5QListI7QStringE6detachEv
FNDA:0,_ZN5QListI7QStringE6detachEv
FN:409,_ZN5QListIS_I7QStringEE6detachEv
FNDA:0,_ZN5QListIS_I7QStringEE6detachEv
FN:414,_ZN5QListI7QStringE4dataEv
FNDA:0,_ZN5QListI7QStringE4dataEv
FN:414,_ZN5QListIS_I7QStringEE4dataEv
FNDA:0,_ZN5QListIS_I7QStringEE4dataEv
FN:434,_ZN5QListI7QStringEixEx
FNDA:0,_ZN5QListI7QStringEixEx
FN:434,_ZN5QListIS_I7QStringEEixEx
FNDA:0,_ZN5QListIS_I7QStringEEixEx
DA:283,0
DA:284,0
DA:286,0
DA:287,0
DA:288,0
DA:386,0
DA:386,0
DA:409,0
DA:409,0
DA:414,0
DA:414,0
DA:434,0
DA:436,0
DA:438,0
DA:434,0
DA:436,0
DA:438,0
end_of_record
SF:C:
Users
USER
Documents
UFMG
6
teste
testes_tp
build/C:/Qt/Tools/mingw1120_64/lib/gcc/x86_64-w64-mingw32/11.2.0/include/c++/bits/stl_construct.h
FN:135,_ZSt8_DestroyI5QListI7QStringEEvPT_
FNDA:0,_ZSt8_DestroyI5QListI7QStringEEvPT_
FN:135,_ZSt8_DestroyI7QStringEvPT_
FNDA:0,_ZSt8_DestroyI7QStringEvPT_
FN:149,_ZNSt12_Destroy_auxILb0EE9__destroyIP5QListI7QStringEEEvT_S6_
FNDA:0,_ZNSt12_Destroy_auxILb0EE9__destroyIP5QListI7QStringEEEvT_S6_
FN:149,_ZNSt12_Destroy_auxILb0EE9__destroyIP7QStringEEvT_S4_
FNDA:0,_ZNSt12_Destroy_auxILb0EE9__destroyIP7QStringEEvT_S4_
FN:171,_ZSt8_DestroyIP5QListI7QStringEEvT_S4_
FNDA:0,_ZSt8_DestroyIP5QListI7QStringEEvT_S4_
FN:171,_ZSt8_DestroyIP7QStringEvT_S2_
FNDA:0,_ZSt8_DestroyIP7QStringEvT_S2_
FN:240,_ZSt7destroyIP5QListI7QStringEEvT_S4_
FNDA:0,_ZSt7destroyIP5QListI7QStringEEvT_S4_
FN:240,_ZSt7destroyIP7QStringEvT_S2_
FNDA:0,_ZSt7destroyIP7QStringEvT_S2_
DA:135,0
DA:140,0
DA:142,0
DA:135,0
DA:140,0
DA:142,0
DA:149,0
DA:151,0
DA:152,0
DA:153,0
DA:149,0
DA:151,0
DA:152,0
DA:153,0
DA:171,0
DA:185,0
DA:186,0
DA:171,0
DA:185,0
DA:186,0
DA:240,0
DA:242,0
DA:243,0
DA:240,0
DA:242,0
DA:243,0
end_of_record
SF:C:
Users
USER
Documents
UFMG
6
teste
testes_tp
build/C:/Qt/Tools/mingw1120_64/lib/gcc/x86_64-w64-mingw32/11.2.0/include/c++/bits/move.h
FN:49,_ZSt11__addressofI5QListI7QStringEEPT_RS3_
FNDA:0,_ZSt11__addressofI5QListI7QStringEEPT_RS3_
FN:49,_ZSt11__addressofI7QStringEPT_RS1_
FNDA:0,_ZSt11__addressofI7QStringEPT_RS1_
FN:77,_ZSt7forwardIP5QListI7QStringEEOT_RNSt16remove_referenceIS4_E4typeE
FNDA:0,_ZSt7forwardIP5QListI7QStringEEOT_RNSt16remove_referenceIS4_E4typeE
FN:77,_ZSt7forwardIP15QTypedArrayDataI5QListI7QStringEEEOT_RNSt16remove_referenceIS6_E4typeE
FNDA:0,_ZSt7forwardIP15QTypedArrayDataI5QListI7QStringEEEOT_RNSt16remove_referenceIS6_E4typeE
FN:77,_ZSt7forwardIP7QStringEOT_RNSt16remove_referenceIS2_E4typeE
FNDA:0,_ZSt7forwardIP7QStringEOT_RNSt16remove_referenceIS2_E4typeE
FN:77,_ZSt7forwardIP15QTypedArrayDataI7QStringEEOT_RNSt16remove_referenceIS4_E4typeE
FNDA:0,_ZSt7forwardIP15QTypedArrayDataI7QStringEEOT_RNSt16remove_referenceIS4_E4typeE
FN:104,_ZSt4moveIR5QListI7QStringEEONSt16remove_referenceIT_E4typeEOS5_
FNDA:0,_ZSt4moveIR5QListI7QStringEEONSt16remove_referenceIT_E4typeEOS5_
FN:104,_ZSt4moveIRSt4pairIP15QTypedArrayDataI7QStringEPS2_EEONSt16remove_referenceIT_E4typeEOS9_
FNDA:0,_ZSt4moveIRSt4pairIP15QTypedArrayDataI7QStringEPS2_EEONSt16remove_referenceIT_E4typeEOS9_
FN:104,_ZSt4moveIRSt4pairIP15QTypedArrayDataI5QListI7QStringEEPS4_EEONSt16remove_referenceIT_E4typeEOSB_
FNDA:0,_ZSt4moveIRSt4pairIP15QTypedArrayDataI5QListI7QStringEEPS4_EEONSt16remove_referenceIT_E4typeEOSB_
FN:104,_ZSt4moveIRxEONSt16remove_referenceIT_E4typeEOS2_
FNDA:0,_ZSt4moveIRxEONSt16remove_referenceIT_E4typeEOS2_
FN:104,_ZSt4moveIR7QStringEONSt16remove_referenceIT_E4typeEOS3_
FNDA:0,_ZSt4moveIR7QStringEONSt16remove_referenceIT_E4typeEOS3_
FN:196,_ZSt4swapIxENSt9enable_ifIXsrSt6__and_IJSt6__not_ISt15__is_tuple_likeIT_EESt21is_move_constructibleIS4_ESt18is_move_assignableIS4_EEE5valueEvE4typeERS4_SE_
FNDA:0,_ZSt4swapIxENSt9enable_ifIXsrSt6__and_IJSt6__not_ISt15__is_tuple_likeIT_EESt21is_move_constructibleIS4_ESt18is_move_assignableIS4_EEE5valueEvE4typeERS4_SE_
DA:49,0
DA:50,0
DA:49,0
DA:50,0
DA:77,0
DA:78,0
DA:77,0
DA:78,0
DA:77,0
DA:78,0
DA:77,0
DA:78,0
DA:104,0
DA:105,0
DA:104,0
DA:105,0
DA:104,0
DA:105,0
DA:104,0
DA:105,0
DA:104,0
DA:105,0
DA:196,0
DA:204,0
DA:205,0
DA:206,0
DA:207,0
end_of_record
SF:C:
Users
USER
Documents
UFMG
6
teste
testes_tp
build/C:/Qt/Tools/mingw1120_64/lib/gcc/x86_64-w64-mingw32/11.2.0/include/c++/bits/atomic_base.h
FN:104,_ZStanSt12memory_orderSt23__memory_order_modifier
FNDA:0,_ZStanSt12memory_orderSt23__memory_order_modifier
DA:104,0
DA:106,0
DA:477,0
DA:481,0
DA:636,0
DA:646,0
end_of_record
SF:C:
Users
USER
Documents
UFMG
6
teste
testes_tp
build/C:/Qt/6.6.0/mingw_64/include/QtCore/qstring.h
FN:178,_ZN7QStringC1EOS_
FNDA:0,_ZN7QStringC1EOS_
FN:782,_ZN7QStringC1EPKc
FNDA:0,_ZN7QStringC1EPKc
FN:1107,_ZN7QStringC1ERKS_
FNDA:0,_ZN7QStringC1ERKS_
FN:1169,_ZN7QStringD1Ev
FNDA:0,_ZN7QStringD1Ev
DA:178,0
DA:782,0
DA:783,0
DA:784,0
DA:1107,0
DA:1108,0
DA:1169,0
end_of_record
SF:C:
Users
USER
Documents
UFMG
6
teste
testes_tp
build/C:/Qt/6.6.0/mingw_64/include/QtCore/qbytearrayview.h
FN:67,_ZN9QtPrivateL19lengthHelperPointerIcEExPKT_
FNDA:0,_ZN9QtPrivateL19lengthHelperPointerIcEExPKT_
FN:126,_ZN14QByteArrayView10castHelperEPKc
FNDA:0,_ZN14QByteArrayView10castHelperEPKc
FN:136,_ZN14QByteArrayViewC1IcLb1EEEPKT_x
FNDA:0,_ZN14QByteArrayViewC1IcLb1EEEPKT_x
FN:149,_ZN14QByteArrayViewC1IPKcLb1EEERKT_
FNDA:0,_ZN14QByteArrayViewC1IPKcLb1EEERKT_
DA:67,0
DA:69,0
DA:126,0
DA:127,0
DA:136,0
DA:137,0
DA:138,0
DA:149,0
DA:151,0
end_of_record
SF:C:
Users
USER
Documents
UFMG
6
teste
testes_tp
build/C:/Qt/6.6.0/mingw_64/include/QtCore/qflags.h
FN:31,_ZN5QFlagC1Ej
FNDA:0,_ZN5QFlagC1Ej
FN:34,_ZNK5QFlagcvjEv
FNDA:0,_ZNK5QFlagcvjEv
FN:74,_ZN6QFlagsIN10QArrayData11ArrayOptionEEC1ES1_
FNDA:0,_ZN6QFlagsIN10QArrayData11ArrayOptionEEC1ES1_
FN:75,_ZN6QFlagsIN10QArrayData11ArrayOptionEEC1E5QFlag
FNDA:0,_ZN6QFlagsIN10QArrayData11ArrayOptionEEC1E5QFlag
FN:103,_ZNK6QFlagsIN10QArrayData11ArrayOptionEEcvjEv
FNDA:0,_ZNK6QFlagsIN10QArrayData11ArrayOptionEEcvjEv
FN:116,_ZNK6QFlagsIN10QArrayData11ArrayOptionEEanES1_
FNDA:0,_ZNK6QFlagsIN10QArrayData11ArrayOptionEEanES1_
DA:31,0
DA:34,0
DA:74,0
DA:75,0
DA:103,0
DA:116,0
end_of_record
SF:C:
Users
USER
Documents
UFMG
6
teste
testes_tp
build/C:/Qt/Tools/mingw1120_64/lib/gcc/x86_64-w64-mingw32/11.2.0/include/c++/bits/char_traits.h
FN:106,_ZN9__gnu_cxx11char_traitsIcE2eqERKcS3_
FNDA:0,_ZN9__gnu_cxx11char_traitsIcE2eqERKcS3_
FN:167,_ZN9__gnu_cxx11char_traitsIcE6lengthEPKc
FNDA:0,_ZN9__gnu_cxx11char_traitsIcE6lengthEPKc
FN:365,_ZNSt11char_traitsIcE6lengthEPKc
FNDA:0,_ZNSt11char_traitsIcE6lengthEPKc
DA:106,0
DA:107,0
DA:167,0
DA:170,0
DA:171,0
DA:172,0
DA:173,0
DA:262,0
DA:365,0
DA:368,0
DA:369,0
DA:371,0
end_of_record
SF:C:
Users
USER
Documents
UFMG
6
teste
testes_tp
build/C:/Qt/6.6.0/mingw_64/include/QtCore/qpair.h
FN:19,_Z9qMakePairIP15QTypedArrayDataI5QListI7QStringEEPS3_EDcOT_OT0_
FNDA:0,_Z9qMakePairIP15QTypedArrayDataI5QListI7QStringEEPS3_EDcOT_OT0_
FN:19,_Z9qMakePairIP15QTypedArrayDataI7QStringEPS1_EDcOT_OT0_
FNDA:0,_Z9qMakePairIP15QTypedArrayDataI7QStringEPS1_EDcOT_OT0_
DA:19,0
DA:22,0
DA:19,0
DA:22,0
end_of_record
SF:C:
Users
USER
Documents
UFMG
6
teste
testes_tp
build/C:/Qt/Tools/mingw1120_64/lib/gcc/x86_64-w64-mingw32/11.2.0/include/c++/initializer_list
FN:71,_ZNKSt16initializer_listI7QStringE4sizeEv
FNDA:0,_ZNKSt16initializer_listI7QStringE4sizeEv
FN:75,_ZNKSt16initializer_listI7QStringE5beginEv
FNDA:0,_ZNKSt16initializer_listI7QStringE5beginEv
FN:79,_ZNKSt16initializer_listI7QStringE3endEv
FNDA:0,_ZNKSt16initializer_listI7QStringE3endEv
DA:71,0
DA:75,0
DA:79,0
end_of_record
SF:C:
Users
USER
Documents
UFMG
6
teste
testes_tp
build/C:/Qt/6.6.0/mingw_64/include/QtCore/qarraydataops.h
FN:95,_ZN9QtPrivate12QPodArrayOpsIDsE10destroyAllEv
FNDA:0,_ZN9QtPrivate12QPodArrayOpsIDsE10destroyAllEv
FN:329,_ZN9QtPrivate16QGenericArrayOpsI5QListI7QStringEE10copyAppendEPKS3_S6_
FNDA:0,_ZN9QtPrivate16QGenericArrayOpsI5QListI7QStringEE10copyAppendEPKS3_S6_
FN:329,_ZN9QtPrivate16QGenericArrayOpsI7QStringE10copyAppendEPKS1_S4_
FNDA:0,_ZN9QtPrivate16QGenericArrayOpsI7QStringE10copyAppendEPKS1_S4_
FN:361,_ZN9QtPrivate16QGenericArrayOpsI7QStringE10moveAppendEPS1_S3_
FNDA:0,_ZN9QtPrivate16QGenericArrayOpsI7QStringE10moveAppendEPS1_S3_
FN:361,_ZN9QtPrivate16QGenericArrayOpsI5QListI7QStringEE10moveAppendEPS3_S5_
FNDA:0,_ZN9QtPrivate16QGenericArrayOpsI5QListI7QStringEE10moveAppendEPS3_S5_
FN:389,_ZN9QtPrivate16QGenericArrayOpsI5QListI7QStringEE10destroyAllEv
FNDA:0,_ZN9QtPrivate16QGenericArrayOpsI5QListI7QStringEE10destroyAllEv
FN:389,_ZN9QtPrivate16QGenericArrayOpsI7QStringE10destroyAllEv
FNDA:0,_ZN9QtPrivate16QGenericArrayOpsI7QStringE10destroyAllEv
FN:865,_ZN9QtPrivate16QMovableArrayOpsI7QStringE10reallocateExN10QArrayData16AllocationOptionE
FNDA:0,_ZN9QtPrivate16QMovableArrayOpsI7QStringE10reallocateExN10QArrayData16AllocationOptionE
FN:865,_ZN9QtPrivate16QMovableArrayOpsI5QListI7QStringEE10reallocateExN10QArrayData16AllocationOptionE
FNDA:0,_ZN9QtPrivate16QMovableArrayOpsI5QListI7QStringEE10reallocateExN10QArrayData16AllocationOptionE
DA:95,0
DA:97,0
DA:98,0
DA:102,0
DA:329,0
DA:331,0
DA:332,0
DA:333,0
DA:334,0
DA:336,0
DA:337,0
DA:339,0
DA:340,0
DA:341,0
DA:342,0
DA:343,0
DA:329,0
DA:331,0
DA:332,0
DA:333,0
DA:334,0
DA:336,0
DA:337,0
DA:339,0
DA:340,0
DA:341,0
DA:342,0
DA:343,0
DA:361,0
DA:363,0
DA:364,0
DA:365,0
DA:366,0
DA:368,0
DA:369,0
DA:371,0
DA:372,0
DA:373,0
DA:374,0
DA:375,0
DA:361,0
DA:363,0
DA:364,0
DA:365,0
DA:366,0
DA:368,0
DA:369,0
DA:371,0
DA:372,0
DA:373,0
DA:374,0
DA:375,0
DA:389,0
DA:391,0
DA:395,0
DA:397,0
DA:398,0
DA:389,0
DA:391,0
DA:395,0
DA:397,0
DA:398,0
DA:865,0
DA:867,0
DA:868,0
DA:869,0
DA:870,0
DA:871,0
DA:872,0
DA:865,0
DA:867,0
DA:868,0
DA:869,0
DA:870,0
DA:871,0
DA:872,0
end_of_record
SF:C:
Users
USER
Documents
UFMG
6
teste
testes_tp
build/C:/Qt/Tools/mingw1120_64/lib/gcc/x86_64-w64-mingw32/11.2.0/include/c++/bits/stl_pair.h
FN:352,_ZNSt4pairIP15QTypedArrayDataI5QListI7QStringEEPS3_EC1IS5_S6_Lb1EEEOT_OT0_
FNDA:0,_ZNSt4pairIP15QTypedArrayDataI5QListI7QStringEEPS3_EC1IS5_S6_Lb1EEEOT_OT0_
FN:352,_ZNSt4pairIP15QTypedArrayDataI7QStringEPS1_EC1IS3_S4_Lb1EEEOT_OT0_
FNDA:0,_ZNSt4pairIP15QTypedArrayDataI7QStringEPS1_EC1IS3_S4_Lb1EEEOT_OT0_
FN:567,_ZSt9make_pairIP15QTypedArrayDataI5QListI7QStringEEPS3_ESt4pairINSt25__strip_reference_wrapperINSt5decayIT_E4typeEE6__typeENS8_INS9_IT0_E4typeEE6__typeEEOSA_OSF_
FNDA:0,_ZSt9make_pairIP15QTypedArrayDataI5QListI7QStringEEPS3_ESt4pairINSt25__strip_reference_wrapperINSt5decayIT_E4typeEE6__typeENS8_INS9_IT0_E4typeEE6__typeEEOSA_OSF_
FN:567,_ZSt9make_pairIP15QTypedArrayDataI7QStringEPS1_ESt4pairINSt25__strip_reference_wrapperINSt5decayIT_E4typeEE6__typeENS6_INS7_IT0_E4typeEE6__typeEEOS8_OSD_
FNDA:0,_ZSt9make_pairIP15QTypedArrayDataI7QStringEPS1_ESt4pairINSt25__strip_reference_wrapperINSt5decayIT_E4typeEE6__typeENS6_INS7_IT0_E4typeEE6__typeEEOS8_OSD_
DA:352,0
DA:353,0
DA:352,0
DA:353,0
DA:567,0
DA:572,0
DA:567,0
DA:572,0
end_of_record
SF:C:
Users
USER
Documents
UFMG
6
teste
testes_tp
build/..
populando_mocked_agenda.cpp
FN:3,_ZN23populando_mocked_agendaC2EP12QTableWidgetP23mocked_agenda_interface
FNDA:10,_ZN23populando_mocked_agendaC2EP12QTableWidgetP23mocked_agenda_interface
FN:6,_ZN23populando_mocked_agenda14popular_agendaEv
FNDA:10,_ZN23populando_mocked_agenda14popular_agendaEv
DA:3,10
DA:4,10
DA:6,10
DA:8,10
DA:10,10
DA:11,10
DA:12,60
DA:13,10
DA:15,40
DA:16,180
DA:17,150
DA:18,150
DA:21,10
end_of_record
SF:C:
Users
USER
Documents
UFMG
6
teste
testes_tp
build/C:/Qt/6.6.0/mingw_64/include/QtCore/qatomic_cxx11.h
FN:199,_ZN10QAtomicOpsIiE11loadRelaxedIiEET_RKSt6atomicIS2_E
FNDA:0,_ZN10QAtomicOpsIiE11loadRelaxedIiEET_RKSt6atomicIS2_E
FN:243,_ZN10QAtomicOpsIiE3refIiEEbRSt6atomicIT_E
FNDA:0,_ZN10QAtomicOpsIiE3refIiEEbRSt6atomicIT_E
FN:262,_ZN10QAtomicOpsIiE5derefIiEEbRSt6atomicIT_E
FNDA:0,_ZN10QAtomicOpsIiE5derefIiEEbRSt6atomicIT_E
DA:199,0
DA:201,0
DA:243,0
DA:258,0
DA:262,0
DA:265,0
end_of_record
SF:C:
Users
USER
Documents
UFMG
6
teste
testes_tp
build/C:/Qt/6.6.0/mingw_64/include/QtCore/qarraydata.h
FN:43,_ZNK10QArrayData22constAllocatedCapacityEv
FNDA:0,_ZNK10QArrayData22constAllocatedCapacityEv
FN:49,_ZN10QArrayData3refEv
FNDA:0,_ZN10QArrayData3refEv
FN:56,_ZN10QArrayData5derefEv
FNDA:0,_ZN10QArrayData5derefEv
FN:61,_ZNK10QArrayData8isSharedEv
FNDA:0,_ZNK10QArrayData8isSharedEv
FN:69,_ZNK10QArrayData11needsDetachEv
FNDA:0,_ZNK10QArrayData11needsDetachEv
FN:74,_ZNK10QArrayData14detachCapacityEx
FNDA:0,_ZNK10QArrayData14detachCapacityEx
FN:101,_ZN15QTypedArrayDataI5QListI7QStringEE8allocateExN10QArrayData16AllocationOptionE
FNDA:0,_ZN15QTypedArrayDataI5QListI7QStringEE8allocateExN10QArrayData16AllocationOptionE
FN:101,_ZN15QTypedArrayDataI7QStringE8allocateExN10QArrayData16AllocationOptionE
FNDA:0,_ZN15QTypedArrayDataI7QStringE8allocateExN10QArrayData16AllocationOptionE
FN:113,_ZN15QTypedArrayDataI7QStringE19reallocateUnalignedEPS1_PS0_xN10QArrayData16AllocationOptionE
FNDA:0,_ZN15QTypedArrayDataI7QStringE19reallocateUnalignedEPS1_PS0_xN10QArrayData16AllocationOptionE
FN:113,_ZN15QTypedArrayDataI5QListI7QStringEE19reallocateUnalignedEPS3_PS2_xN10QArrayData16AllocationOptionE
FNDA:0,_ZN15QTypedArrayDataI5QListI7QStringEE19reallocateUnalignedEPS3_PS2_xN10QArrayData16AllocationOptionE
FN:127,_ZN15QTypedArrayDataI5QListI7QStringEE9dataStartEP10QArrayDatax
FNDA:0,_ZN15QTypedArrayDataI5QListI7QStringEE9dataStartEP10QArrayDatax
FN:127,_ZN15QTypedArrayDataI7QStringE9dataStartEP10QArrayDatax
FNDA:0,_ZN15QTypedArrayDataI7QStringE9dataStartEP10QArrayDatax
DA:43,0
DA:45,0
DA:49,0
DA:51,0
DA:52,0
DA:56,0
DA:58,0
DA:61,0
DA:63,0
DA:69,0
DA:71,0
DA:74,0
DA:76,0
DA:77,0
DA:78,0
DA:101,0
DA:105,0
DA:107,0
DA:109,0
DA:101,0
DA:105,0
DA:107,0
DA:109,0
DA:113,0
DA:117,0
DA:118,0
DA:113,0
DA:117,0
DA:118,0
DA:127,0
DA:130,0
DA:131,0
DA:132,0
DA:133,0
DA:127,0
DA:130,0
DA:131,0
DA:132,0
DA:133,0
end_of_record
SF:C:
Users
USER
Documents
UFMG
6
teste
testes_tp
build/C:/Qt/6.6.0/mingw_64/include/QtCore/qbasicatomic.h
FN:38,_ZNK19QBasicAtomicIntegerIiE11loadRelaxedEv
FNDA:0,_ZNK19QBasicAtomicIntegerIiE11loadRelaxedEv
FN:49,_ZN19QBasicAtomicIntegerIiE3refEv
FNDA:0,_ZN19QBasicAtomicIntegerIiE3refEv
FN:50,_ZN19QBasicAtomicIntegerIiE5derefEv
FNDA:0,_ZN19QBasicAtomicIntegerIiE5derefEv
DA:38,0
DA:49,0
DA:50,0
end_of_record
TN:
SF:C:
Users
USER
Documents
UFMG
6
teste
testes_tp
build/C:/Qt/6.6.0/mingw_64/include/QtCore/qminmax.h
FN:42,_Z4qMaxIiERKT_S2_S2_
FNDA:21,_Z4qMaxIiERKT_S2_S2_
DA:42,21
end_of_record
SF:C:
Users
USER
Documents
UFMG
6
teste
testes_tp
build/C:/Qt/6.6.0/mingw_64/include/QtCore/qstringview.h
FN:137,_ZN11QStringView10castHelperI5QCharEEPKDsPKT_
FNDA:173,_ZN11QStringView10castHelperI5QCharEEPKDsPKT_
FN:148,_ZN11QStringViewC1I5QCharLb1EEEPKT_x
FNDA:173,_ZN11QStringViewC1I5QCharLb1EEEPKT_x
FN:179,_ZN11QStringViewC1I7QStringLb1EEERKT_
FNDA:173,_ZN11QStringViewC1I7QStringLb1EEERKT_
DA:137,173
DA:138,173
DA:148,173
DA:153,173
DA:154,173
DA:156,173
DA:179,173
DA:180,173
end_of_record
SF:C:
Users
USER
Documents
UFMG
6
teste
testes_tp
build/C:/Qt/6.6.0/mingw_64/include/QtTest/qtestspontaneevent.h
FN:19,_ZN17QSpontaneKeyEvent14setSpontaneousEP6QEvent
FNDA:358,_ZN17QSpontaneKeyEvent14setSpontaneousEP6QEvent
DA:19,358
DA:22,358
end_of_record
SF:C:
Users
USER
Documents
UFMG
6
teste
testes_tp
build/C:/Qt/Tools/mingw1120_64/lib/gcc/x86_64-w64-mingw32/11.2.0/include/c++/bits/stl_construct.h
FN:135,_ZSt8_DestroyI5QListI7QStringEEvPT_
FNDA:128,_ZSt8_DestroyI5QListI7QStringEEvPT_
FN:135,_ZSt8_DestroyI7QStringEvPT_
FNDA:725,_ZSt8_DestroyI7QStringEvPT_
FN:149,_ZNSt12_Destroy_auxILb0EE9__destroyIP5QListI7QStringEEEvT_S6_
FNDA:41,_ZNSt12_Destroy_auxILb0EE9__destroyIP5QListI7QStringEEEvT_S6_
FN:149,_ZNSt12_Destroy_auxILb0EE9__destroyIP7QStringEEvT_S4_
FNDA:145,_ZNSt12_Destroy_auxILb0EE9__destroyIP7QStringEEvT_S4_
FN:171,_ZSt8_DestroyIP5QListI7QStringEEvT_S4_
FNDA:41,_ZSt8_DestroyIP5QListI7QStringEEvT_S4_
FN:171,_ZSt8_DestroyIP7QStringEvT_S2_
FNDA:145,_ZSt8_DestroyIP7QStringEvT_S2_
FN:240,_ZSt7destroyIP5QListI7QStringEEvT_S4_
FNDA:41,_ZSt7destroyIP5QListI7QStringEEvT_S4_
FN:240,_ZSt7destroyIP7QStringEvT_S2_
FNDA:145,_ZSt7destroyIP7QStringEvT_S2_
DA:135,128
DA:140,128
DA:142,128
DA:135,725
DA:140,725
DA:142,725
DA:149,41
DA:151,169
DA:152,128
DA:153,41
DA:149,145
DA:151,870
DA:152,725
DA:153,145
DA:171,41
DA:185,41
DA:186,41
DA:171,145
DA:185,145
DA:186,145
DA:240,41
DA:242,41
DA:243,41
DA:240,145
DA:242,145
DA:243,145
end_of_record
SF:C:
Users
USER
Documents
UFMG
6
teste
testes_tp
build/..
mocked_agenda_de_contatos.h
end_of_record
SF:C:
Users
USER
Documents
UFMG
6
teste
testes_tp
build/C:/Qt/6.6.0/mingw_64/include/QtCore/qsize.h
FN:118,_ZN5QSizeC1Eii
FNDA:34,_ZN5QSizeC1Eii
FN:129,_ZNK5QSize5widthEv
FNDA:0,_ZNK5QSize5widthEv
FN:132,_ZNK5QSize6heightEv
FNDA:0,_ZNK5QSize6heightEv
DA:118,34
DA:129,0
DA:130,0
DA:132,0
DA:133,0
end_of_record
SF:C:
Users
USER
Documents
UFMG
6
teste
testes_tp
build/C:/Qt/6.6.0/mingw_64/include/QtCore/qchar.h
FN:19,_ZN11QLatin1CharC1Ec
FNDA:172,_ZN11QLatin1CharC1Ec
FN:21,_ZNK11QLatin1Char7unicodeEv
FNDA:172,_ZNK11QLatin1Char7unicodeEv
FN:82,_ZN5QCharC1E11QLatin1Char
FNDA:172,_ZN5QCharC1E11QLatin1Char
FN:83,_ZN5QCharC1EDs
FNDA:171,_ZN5QCharC1EDs
FN:457,_ZNK5QChar8toLatin1Ev
FNDA:171,_ZNK5QChar8toLatin1Ev
FN:461,_ZN5QChar10fromLatin1Ec
FNDA:172,_ZN5QChar10fromLatin1Ec
DA:19,172
DA:21,172
DA:82,172
DA:83,171
DA:457,171
DA:461,172
end_of_record
SF:C:
Users
USER
Documents
UFMG
6
teste
testes_tp
build/C:/Qt/6.6.0/mingw_64/include/QtCore/qstring.h
FN:180,_ZN7QStringaSEOS_
FNDA:186,_ZN7QStringaSEOS_
FN:181,_ZN7QString4swapERS_
FNDA:186,_ZN7QString4swapERS_
FN:182,_ZNK7QString4sizeEv
FNDA:666,_ZNK7QString4sizeEv
FN:694,_ZeqRK7QStringS1_
FNDA:26,_ZeqRK7QStringS1_
FN:699,_ZneRK7QStringS1_
FNDA:2,_ZneRK7QStringS1_
FN:782,_ZN7QStringC1EPKc
FNDA:944,_ZN7QStringC1EPKc
FN:898,_ZNK7QString6isNullEv
FNDA:173,_ZNK7QString6isNullEv
FN:1079,_ZNK7QString2atEx
FNDA:171,_ZNK7QString2atEx
FN:1085,_ZNK7QString4dataEv
FNDA:253,_ZNK7QString4dataEv
FN:1099,_ZNK7QString9constDataEv
FNDA:80,_ZNK7QString9constDataEv
FN:1107,_ZN7QStringC1ERKS_
FNDA:1542,_ZN7QStringC1ERKS_
FN:1168,_ZN7QStringC1Ev
FNDA:100,_ZN7QStringC1Ev
FN:1169,_ZN7QStringD1Ev
FNDA:4267,_ZN7QStringD1Ev
FN:1211,_ZNK7QString8containsERKS_N2Qt15CaseSensitivityE
FNDA:41,_ZNK7QString8containsERKS_N2Qt15CaseSensitivityE
FN:1221,_ZNK7QStringeqEPKc
FNDA:12,_ZNK7QStringeqEPKc
FN:1223,_ZNK7QStringneEPKc
FNDA:68,_ZNK7QStringneEPKc
DA:180,186
DA:181,186
DA:182,666
DA:694,26
DA:695,26
DA:699,2
DA:782,944
DA:783,944
DA:784,944
DA:898,173
DA:1079,171
DA:1080,171
DA:1085,253
DA:1088,253
DA:1099,80
DA:1100,80
DA:1107,1542
DA:1108,1542
DA:1168,100
DA:1169,4267
DA:1211,41
DA:1212,41
DA:1221,12
DA:1222,12
DA:1223,68
DA:1224,68
end_of_record
SF:C:
Users
USER
Documents
UFMG
6
teste
testes_tp
build/C:/Qt/Tools/mingw1120_64/lib/gcc/x86_64-w64-mingw32/11.2.0/include/c++/functional
FN:94,_ZSt6invokeIRZN5QTest8qCompareI7QStringA18_cEEbRKT_RKT0_PKcSB_SB_iEUlvE0_JEENSt13invoke_resultIS4_JDpT0_EE4typeEOS4_DpOSF_
FNDA:0,_ZSt6invokeIRZN5QTest8qCompareI7QStringA18_cEEbRKT_RKT0_PKcSB_SB_iEUlvE0_JEENSt13invoke_resultIS4_JDpT0_EE4typeEOS4_DpOSF_
FN:94,_ZSt6invokeIRZN5QTest8qCompareI7QStringA3_cEEbRKT_RKT0_PKcSB_SB_iEUlvE_JEENSt13invoke_resultIS4_JDpT0_EE4typeEOS4_DpOSF_
FNDA:0,_ZSt6invokeIRZN5QTest8qCompareI7QStringA3_cEEbRKT_RKT0_PKcSB_SB_iEUlvE_JEENSt13invoke_resultIS4_JDpT0_EE4typeEOS4_DpOSF_
FN:94,_ZSt6invokeIRZN5QTest8qCompareI7QStringA3_cEEbRKT_RKT0_PKcSB_SB_iEUlvE0_JEENSt13invoke_resultIS4_JDpT0_EE4typeEOS4_DpOSF_
FNDA:0,_ZSt6invokeIRZN5QTest8qCompareI7QStringA3_cEEbRKT_RKT0_PKcSB_SB_iEUlvE0_JEENSt13invoke_resultIS4_JDpT0_EE4typeEOS4_DpOSF_
FN:94,_ZSt6invokeIRZN5QTest8qCompareI7QStringA6_cEEbRKT_RKT0_PKcSB_SB_iEUlvE_JEENSt13invoke_resultIS4_JDpT0_EE4typeEOS4_DpOSF_
FNDA:0,_ZSt6invokeIRZN5QTest8qCompareI7QStringA6_cEEbRKT_RKT0_PKcSB_SB_iEUlvE_JEENSt13invoke_resultIS4_JDpT0_EE4typeEOS4_DpOSF_
FN:94,_ZSt6invokeIRZN5QTest8qCompareI7QStringA6_cEEbRKT_RKT0_PKcSB_SB_iEUlvE0_JEENSt13invoke_resultIS4_JDpT0_EE4typeEOS4_DpOSF_
FNDA:0,_ZSt6invokeIRZN5QTest8qCompareI7QStringA6_cEEbRKT_RKT0_PKcSB_SB_iEUlvE0_JEENSt13invoke_resultIS4_JDpT0_EE4typeEOS4_DpOSF_
FN:94,_ZSt6invokeIRZN5QTest8qCompareI7QStringA14_cEEbRKT_RKT0_PKcSB_SB_iEUlvE_JEENSt13invoke_resultIS4_JDpT0_EE4typeEOS4_DpOSF_
FNDA:0,_ZSt6invokeIRZN5QTest8qCompareI7QStringA14_cEEbRKT_RKT0_PKcSB_SB_iEUlvE_JEENSt13invoke_resultIS4_JDpT0_EE4typeEOS4_DpOSF_
FN:94,_ZSt6invokeIRZN5QTest8qCompareI7QStringA14_cEEbRKT_RKT0_PKcSB_SB_iEUlvE0_JEENSt13invoke_resultIS4_JDpT0_EE4typeEOS4_DpOSF_
FNDA:0,_ZSt6invokeIRZN5QTest8qCompareI7QStringA14_cEEbRKT_RKT0_PKcSB_SB_iEUlvE0_JEENSt13invoke_resultIS4_JDpT0_EE4typeEOS4_DpOSF_
FN:94,_ZSt6invokeIRZN5QTest8qCompareI7QStringA12_cEEbRKT_RKT0_PKcSB_SB_iEUlvE_JEENSt13invoke_resultIS4_JDpT0_EE4typeEOS4_DpOSF_
FNDA:0,_ZSt6invokeIRZN5QTest8qCompareI7QStringA12_cEEbRKT_RKT0_PKcSB_SB_iEUlvE_JEENSt13invoke_resultIS4_JDpT0_EE4typeEOS4_DpOSF_
FN:94,_ZSt6invokeIRZN5QTest8qCompareI7QStringA12_cEEbRKT_RKT0_PKcSB_SB_iEUlvE0_JEENSt13invoke_resultIS4_JDpT0_EE4typeEOS4_DpOSF_
FNDA:0,_ZSt6invokeIRZN5QTest8qCompareI7QStringA12_cEEbRKT_RKT0_PKcSB_SB_iEUlvE0_JEENSt13invoke_resultIS4_JDpT0_EE4typeEOS4_DpOSF_
FN:94,_ZSt6invokeIRZN5QTest8qCompareI7QStringA18_cEEbRKT_RKT0_PKcSB_SB_iEUlvE_JEENSt13invoke_resultIS4_JDpT0_EE4typeEOS4_DpOSF_
FNDA:0,_ZSt6invokeIRZN5QTest8qCompareI7QStringA18_cEEbRKT_RKT0_PKcSB_SB_iEUlvE_JEENSt13invoke_resultIS4_JDpT0_EE4typeEOS4_DpOSF_
FN:94,_ZSt6invokeIRZN5QTest8qCompareI7QStringA10_cEEbRKT_RKT0_PKcSB_SB_iEUlvE0_JEENSt13invoke_resultIS4_JDpT0_EE4typeEOS4_DpOSF_
FNDA:0,_ZSt6invokeIRZN5QTest8qCompareI7QStringA10_cEEbRKT_RKT0_PKcSB_SB_iEUlvE0_JEENSt13invoke_resultIS4_JDpT0_EE4typeEOS4_DpOSF_
FN:94,_ZSt6invokeIRZN5QTest8qCompareI7QStringA13_cEEbRKT_RKT0_PKcSB_SB_iEUlvE_JEENSt13invoke_resultIS4_JDpT0_EE4typeEOS4_DpOSF_
FNDA:0,_ZSt6invokeIRZN5QTest8qCompareI7QStringA13_cEEbRKT_RKT0_PKcSB_SB_iEUlvE_JEENSt13invoke_resultIS4_JDpT0_EE4typeEOS4_DpOSF_
FN:94,_ZSt6invokeIRZN5QTest8qCompareI7QStringA13_cEEbRKT_RKT0_PKcSB_SB_iEUlvE0_JEENSt13invoke_resultIS4_JDpT0_EE4typeEOS4_DpOSF_
FNDA:0,_ZSt6invokeIRZN5QTest8qCompareI7QStringA13_cEEbRKT_RKT0_PKcSB_SB_iEUlvE0_JEENSt13invoke_resultIS4_JDpT0_EE4typeEOS4_DpOSF_
FN:94,_ZSt6invokeIRZN5QTest8qCompareI7QStringA8_cEEbRKT_RKT0_PKcSB_SB_iEUlvE_JEENSt13invoke_resultIS4_JDpT0_EE4typeEOS4_DpOSF_
FNDA:0,_ZSt6invokeIRZN5QTest8qCompareI7QStringA8_cEEbRKT_RKT0_PKcSB_SB_iEUlvE_JEENSt13invoke_resultIS4_JDpT0_EE4typeEOS4_DpOSF_
FN:94,_ZSt6invokeIRZN5QTest8qCompareI7QStringA8_cEEbRKT_RKT0_PKcSB_SB_iEUlvE0_JEENSt13invoke_resultIS4_JDpT0_EE4typeEOS4_DpOSF_
FNDA:0,_ZSt6invokeIRZN5QTest8qCompareI7QStringA8_cEEbRKT_RKT0_PKcSB_SB_iEUlvE0_JEENSt13invoke_resultIS4_JDpT0_EE4typeEOS4_DpOSF_
FN:94,_ZSt6invokeIRZN5QTest8qCompareI7QStringA7_cEEbRKT_RKT0_PKcSB_SB_iEUlvE_JEENSt13invoke_resultIS4_JDpT0_EE4typeEOS4_DpOSF_
FNDA:0,_ZSt6invokeIRZN5QTest8qCompareI7QStringA7_cEEbRKT_RKT0_PKcSB_SB_iEUlvE_JEENSt13invoke_resultIS4_JDpT0_EE4typeEOS4_DpOSF_
FN:94,_ZSt6invokeIRZN5QTest8qCompareI7QStringA7_cEEbRKT_RKT0_PKcSB_SB_iEUlvE0_JEENSt13invoke_resultIS4_JDpT0_EE4typeEOS4_DpOSF_
FNDA:0,_ZSt6invokeIRZN5QTest8qCompareI7QStringA7_cEEbRKT_RKT0_PKcSB_SB_iEUlvE0_JEENSt13invoke_resultIS4_JDpT0_EE4typeEOS4_DpOSF_
FN:94,_ZSt6invokeIRZN5QTest8qCompareIbbEEbRKT_RKT0_PKcS9_S9_iEUlvE_JEENSt13invoke_resultIS2_JDpT0_EE4typeEOS2_DpOSD_
FNDA:0,_ZSt6invokeIRZN5QTest8qCompareIbbEEbRKT_RKT0_PKcS9_S9_iEUlvE_JEENSt13invoke_resultIS2_JDpT0_EE4typeEOS2_DpOSD_
FN:94,_ZSt6invokeIRZN5QTest8qCompareIbbEEbRKT_RKT0_PKcS9_S9_iEUlvE0_JEENSt13invoke_resultIS2_JDpT0_EE4typeEOS2_DpOSD_
FNDA:0,_ZSt6invokeIRZN5QTest8qCompareIbbEEbRKT_RKT0_PKcS9_S9_iEUlvE0_JEENSt13invoke_resultIS2_JDpT0_EE4typeEOS2_DpOSD_
FN:94,_ZSt6invokeIRZN5QTest8qCompareI7QStringA10_cEEbRKT_RKT0_PKcSB_SB_iEUlvE_JEENSt13invoke_resultIS4_JDpT0_EE4typeEOS4_DpOSF_
FNDA:0,_ZSt6invokeIRZN5QTest8qCompareI7QStringA10_cEEbRKT_RKT0_PKcSB_SB_iEUlvE_JEENSt13invoke_resultIS4_JDpT0_EE4typeEOS4_DpOSF_
DA:94,0
DA:97,0
DA:98,0
DA:94,0
DA:97,0
DA:98,0
DA:94,0
DA:97,0
DA:98,0
DA:94,0
DA:97,0
DA:98,0
DA:94,0
DA:97,0
DA:98,0
DA:94,0
DA:97,0
DA:98,0
DA:94,0
DA:97,0
DA:98,0
DA:94,0
DA:97,0
DA:98,0
DA:94,0
DA:97,0
DA:98,0
DA:94,0
DA:97,0
DA:98,0
DA:94,0
DA:97,0
DA:98,0
DA:94,0
DA:97,0
DA:98,0
DA:94,0
DA:97,0
DA:98,0
DA:94,0
DA:97,0
DA:98,0
DA:94,0
DA:97,0
DA:98,0
DA:94,0
DA:97,0
DA:98,0
DA:94,0
DA:97,0
DA:98,0
DA:94,0
DA:97,0
DA:98,0
DA:94,0
DA:97,0
DA:98,0
DA:94,0
DA:97,0
DA:98,0
end_of_record
SF:C:
Users
USER
Documents
UFMG
6
teste
testes_tp
build/C:/Qt/6.6.0/mingw_64/include/QtCore/qmetatype.h
FN:440,_ZN9QMetaTypeC1Ev
FNDA:0,_ZN9QMetaTypeC1Ev
FN:991,_ZN9QtPrivate17MetaObjectForTypeI17testes_de_unidadevE18metaObjectFunctionEPKNS_18QMetaTypeInterfaceE
FNDA:0,_ZN9QtPrivate17MetaObjectForTypeI17testes_de_unidadevE18metaObjectFunctionEPKNS_18QMetaTypeInterfaceE
FN:2406,_ZZN9QtPrivate16QMetaTypeForTypeI17testes_de_unidadeE13getDefaultCtrEvENKUlPKNS_18QMetaTypeInterfaceEPvE_clES5_S6_
FNDA:0,_ZZN9QtPrivate16QMetaTypeForTypeI17testes_de_unidadeE13getDefaultCtrEvENKUlPKNS_18QMetaTypeInterfaceEPvE_clES5_S6_
FN:2437,_ZZN9QtPrivate16QMetaTypeForTypeI17testes_de_unidadeE7getDtorEvENKUlPKNS_18QMetaTypeInterfaceEPvE_clES5_S6_
FNDA:0,_ZZN9QtPrivate16QMetaTypeForTypeI17testes_de_unidadeE7getDtorEvENKUlPKNS_18QMetaTypeInterfaceEPvE_clES5_S6_
DA:440,0
DA:991,0
DA:2406,0
DA:2437,0
DA:2438,0
end_of_record
SF:C:
Users
USER
Documents
UFMG
6
teste
testes_tp
build/C:/Qt/6.6.0/mingw_64/include/QtCore/qpair.h
FN:19,_Z9qMakePairIP15QTypedArrayDataI7QStringEPS1_EDcOT_OT0_
FNDA:177,_Z9qMakePairIP15QTypedArrayDataI7QStringEPS1_EDcOT_OT0_
DA:19,177
DA:22,177
end_of_record
SF:C:
Users
USER
Documents
UFMG
6
teste
testes_tp
build/C:/Qt/6.6.0/mingw_64/include/QtGui/qcursor.h
FN:80,_ZN7QCursor6setPosERK6QPoint
FNDA:0,_ZN7QCursor6setPosERK6QPoint
DA:80,0
end_of_record
SF:C:
Users
USER
Documents
UFMG
6
teste
testes_tp
build/C:/Qt/Tools/mingw1120_64/lib/gcc/x86_64-w64-mingw32/11.2.0/include/c++/bits/char_traits.h
FN:106,_ZN9__gnu_cxx11char_traitsIcE2eqERKcS3_
FNDA:0,_ZN9__gnu_cxx11char_traitsIcE2eqERKcS3_
FN:167,_ZN9__gnu_cxx11char_traitsIcE6lengthEPKc
FNDA:0,_ZN9__gnu_cxx11char_traitsIcE6lengthEPKc
FN:365,_ZNSt11char_traitsIcE6lengthEPKc
FNDA:994,_ZNSt11char_traitsIcE6lengthEPKc
DA:106,0
DA:107,0
DA:167,0
DA:170,0
DA:171,0
DA:172,0
DA:173,0
DA:262,994
DA:365,994
DA:368,994
DA:369,0
DA:371,994
end_of_record
SF:C:
Users
USER
Documents
UFMG
6
teste
testes_tp
build/C:/Qt/6.6.0/mingw_64/include/QtGui/qevent.h
FN:58,_ZNK11QInputEvent9timestampEv
FNDA:172,_ZNK11QInputEvent9timestampEv
DA:58,172
end_of_record
SF:C:
Users
USER
Documents
UFMG
6
teste
testes_tp
build/C:/Qt/6.6.0/mingw_64/include/QtCore/qarraydataops.h
FN:95,_ZN9QtPrivate12QPodArrayOpsIDsE10destroyAllEv
FNDA:796,_ZN9QtPrivate12QPodArrayOpsIDsE10destroyAllEv
FN:329,_ZN9QtPrivate16QGenericArrayOpsI7QStringE10copyAppendEPKS1_S4_
FNDA:144,_ZN9QtPrivate16QGenericArrayOpsI7QStringE10copyAppendEPKS1_S4_
FN:389,_ZN9QtPrivate16QGenericArrayOpsI5QListI7QStringEE10destroyAllEv
FNDA:41,_ZN9QtPrivate16QGenericArrayOpsI5QListI7QStringEE10destroyAllEv
FN:389,_ZN9QtPrivate16QGenericArrayOpsI7QStringE10destroyAllEv
FNDA:145,_ZN9QtPrivate16QGenericArrayOpsI7QStringE10destroyAllEv
DA:95,796
DA:97,796
DA:98,796
DA:102,796
DA:329,144
DA:331,144
DA:332,144
DA:333,144
DA:334,144
DA:336,144
DA:337,0
DA:339,144
DA:340,824
DA:341,680
DA:342,680
DA:343,680
DA:389,41
DA:391,41
DA:395,41
DA:397,41
DA:398,41
DA:389,145
DA:391,145
DA:395,145
DA:397,145
DA:398,145
end_of_record
SF:C:
Users
USER
Documents
UFMG
6
teste
testes_tp
build/C:/Qt/6.6.0/mingw_64/include/QtCore/qobjectdefs_impl.h
FN:63,_ZN9QtPrivate16ApplyReturnValueIvEC1EPv
FNDA:14,_ZN9QtPrivate16ApplyReturnValueIvEC1EPv
FN:118,_ZN9QtPrivate16assertObjectTypeI7QWidgetEEvP7QObject
FNDA:14,_ZN9QtPrivate16assertObjectTypeI7QWidgetEEvP7QObject
FN:124,_ZZN9QtPrivate16assertObjectTypeI7QWidgetEEvP7QObjectENKUlS3_E1_clES3_
FNDA:14,_ZZN9QtPrivate16assertObjectTypeI7QWidgetEEvP7QObjectENKUlS3_E1_clES3_
FN:142,_ZN9QtPrivate11FunctorCallINS_11IndexesListIJEEENS_4ListIJEEEvM7QWidgetFvvEE4callES7_PS5_PPv
FNDA:14,_ZN9QtPrivate11FunctorCallINS_11IndexesListIJEEENS_4ListIJEEEvM7QWidgetFvvEE4callES7_PS5_PPv
FN:181,_ZN9QtPrivate15FunctionPointerIM7QWidgetFvvEE4callINS_4ListIJEEEvEEvS3_PS1_PPv
FNDA:14,_ZN9QtPrivate15FunctionPointerIM7QWidgetFvvEE4callINS_4ListIJEEEvEEvS3_PS1_PPv
FN:416,_ZN9QtPrivate15QSlotObjectBaseC2EPFviPS0_P7QObjectPPvPbE
FNDA:14,_ZN9QtPrivate15QSlotObjectBaseC2EPFviPS0_P7QObjectPPvPbE
FN:448,_ZN9QtPrivate15QSlotObjectBaseD2Ev
FNDA:14,_ZN9QtPrivate15QSlotObjectBaseD2Ev
FN:505,_ZN9QtPrivate15QCallableObjectIM7QWidgetFvvENS_4ListIJEEEvE4implEiPNS_15QSlotObjectBaseEP7QObjectPPvPb
FNDA:28,_ZN9QtPrivate15QCallableObjectIM7QWidgetFvvENS_4ListIJEEEvE4implEiPNS_15QSlotObjectBaseEP7QObjectPPvPb
FN:536,_ZN9QtPrivate15QCallableObjectIM7QWidgetFvvENS_4ListIJEEEvEC1EOS3_
FNDA:14,_ZN9QtPrivate15QCallableObjectIM7QWidgetFvvENS_4ListIJEEEvEC1EOS3_
FN:579,_ZN9QtPrivateL18makeCallableObjectIM15QAbstractButtonFvbEM7QWidgetFvvEEENSt9enable_ifIXgecl22countMatchingArgumentsIT_T0_EELi0EEPNS_15QSlotObjectBaseEE4typeEOS9_
FNDA:14,_ZN9QtPrivateL18makeCallableObjectIM15QAbstractButtonFvbEM7QWidgetFvvEEENSt9enable_ifIXgecl22countMatchingArgumentsIT_T0_EELi0EEPNS_15QSlotObjectBaseEE4typeEOS9_
DA:63,14
DA:118,14
DA:124,14
DA:129,14
DA:131,14
DA:142,14
DA:144,14
DA:145,14
DA:146,14
DA:181,14
DA:182,14
DA:183,14
DA:416,14
DA:448,14
DA:505,28
DA:513,28
DA:514,28
DA:515,14
DA:516,14
DA:517,14
DA:518,14
DA:520,14
DA:523,14
DA:524,0
DA:526,0
DA:527,0
DA:531,28
DA:534,28
DA:536,14
DA:579,14
DA:586,14
DA:592,14
end_of_record
SF:C:
Users
USER
Documents
UFMG
6
teste
testes_tp
build/C:/Qt/6.6.0/mingw_64/include/QtCore/qxpfunctional.h
FN:65,_ZN3qxp6detail15BoundEntityTypeIvEC1IZN5QTest8qCompareI7QStringA10_cEEbRKT_RKT0_PKcSF_SF_iEUlvE0_Lb1EEEPS8_
FNDA:2,_ZN3qxp6detail15BoundEntityTypeIvEC1IZN5QTest8qCompareI7QStringA10_cEEbRKT_RKT0_PKcSF_SF_iEUlvE0_Lb1EEEPS8_
FN:65,_ZN3qxp6detail15BoundEntityTypeIvEC1IZN5QTest8qCompareI7QStringA18_cEEbRKT_RKT0_PKcSF_SF_iEUlvE0_Lb1EEEPS8_
FNDA:1,_ZN3qxp6detail15BoundEntityTypeIvEC1IZN5QTest8qCompareI7QStringA18_cEEbRKT_RKT0_PKcSF_SF_iEUlvE0_Lb1EEEPS8_
FN:65,_ZN3qxp6detail15BoundEntityTypeIvEC1IZN5QTest8qCompareI7QStringA13_cEEbRKT_RKT0_PKcSF_SF_iEUlvE_Lb1EEEPS8_
FNDA:1,_ZN3qxp6detail15BoundEntityTypeIvEC1IZN5QTest8qCompareI7QStringA13_cEEbRKT_RKT0_PKcSF_SF_iEUlvE_Lb1EEEPS8_
FN:65,_ZN3qxp6detail15BoundEntityTypeIvEC1IZN5QTest8qCompareI7QStringA18_cEEbRKT_RKT0_PKcSF_SF_iEUlvE_Lb1EEEPS8_
FNDA:1,_ZN3qxp6detail15BoundEntityTypeIvEC1IZN5QTest8qCompareI7QStringA18_cEEbRKT_RKT0_PKcSF_SF_iEUlvE_Lb1EEEPS8_
FN:65,_ZN3qxp6detail15BoundEntityTypeIvEC1IZN5QTest8qCompareI7QStringA13_cEEbRKT_RKT0_PKcSF_SF_iEUlvE0_Lb1EEEPS8_
FNDA:1,_ZN3qxp6detail15BoundEntityTypeIvEC1IZN5QTest8qCompareI7QStringA13_cEEbRKT_RKT0_PKcSF_SF_iEUlvE0_Lb1EEEPS8_
FN:65,_ZN3qxp6detail15BoundEntityTypeIvEC1IZN5QTest8qCompareI7QStringA12_cEEbRKT_RKT0_PKcSF_SF_iEUlvE0_Lb1EEEPS8_
FNDA:2,_ZN3qxp6detail15BoundEntityTypeIvEC1IZN5QTest8qCompareI7QStringA12_cEEbRKT_RKT0_PKcSF_SF_iEUlvE0_Lb1EEEPS8_
FN:65,_ZN3qxp6detail15BoundEntityTypeIvEC1IZN5QTest8qCompareI7QStringA8_cEEbRKT_RKT0_PKcSF_SF_iEUlvE_Lb1EEEPS8_
FNDA:1,_ZN3qxp6detail15BoundEntityTypeIvEC1IZN5QTest8qCompareI7QStringA8_cEEbRKT_RKT0_PKcSF_SF_iEUlvE_Lb1EEEPS8_
FN:65,_ZN3qxp6detail15BoundEntityTypeIvEC1IZN5QTest8qCompareI7QStringA12_cEEbRKT_RKT0_PKcSF_SF_iEUlvE_Lb1EEEPS8_
FNDA:2,_ZN3qxp6detail15BoundEntityTypeIvEC1IZN5QTest8qCompareI7QStringA12_cEEbRKT_RKT0_PKcSF_SF_iEUlvE_Lb1EEEPS8_
FN:65,_ZN3qxp6detail15BoundEntityTypeIvEC1IZN5QTest8qCompareI7QStringA8_cEEbRKT_RKT0_PKcSF_SF_iEUlvE0_Lb1EEEPS8_
FNDA:1,_ZN3qxp6detail15BoundEntityTypeIvEC1IZN5QTest8qCompareI7QStringA8_cEEbRKT_RKT0_PKcSF_SF_iEUlvE0_Lb1EEEPS8_
FN:65,_ZN3qxp6detail15BoundEntityTypeIvEC1IZN5QTest8qCompareI7QStringA14_cEEbRKT_RKT0_PKcSF_SF_iEUlvE0_Lb1EEEPS8_
FNDA:1,_ZN3qxp6detail15BoundEntityTypeIvEC1IZN5QTest8qCompareI7QStringA14_cEEbRKT_RKT0_PKcSF_SF_iEUlvE0_Lb1EEEPS8_
FN:65,_ZN3qxp6detail15BoundEntityTypeIvEC1IZN5QTest8qCompareI7QStringA7_cEEbRKT_RKT0_PKcSF_SF_iEUlvE_Lb1EEEPS8_
FNDA:1,_ZN3qxp6detail15BoundEntityTypeIvEC1IZN5QTest8qCompareI7QStringA7_cEEbRKT_RKT0_PKcSF_SF_iEUlvE_Lb1EEEPS8_
FN:65,_ZN3qxp6detail15BoundEntityTypeIvEC1IZN5QTest8qCompareI7QStringA14_cEEbRKT_RKT0_PKcSF_SF_iEUlvE_Lb1EEEPS8_
FNDA:1,_ZN3qxp6detail15BoundEntityTypeIvEC1IZN5QTest8qCompareI7QStringA14_cEEbRKT_RKT0_PKcSF_SF_iEUlvE_Lb1EEEPS8_
FN:65,_ZN3qxp6detail15BoundEntityTypeIvEC1IZN5QTest8qCompareI7QStringA7_cEEbRKT_RKT0_PKcSF_SF_iEUlvE0_Lb1EEEPS8_
FNDA:1,_ZN3qxp6detail15BoundEntityTypeIvEC1IZN5QTest8qCompareI7QStringA7_cEEbRKT_RKT0_PKcSF_SF_iEUlvE0_Lb1EEEPS8_
FN:65,_ZN3qxp6detail15BoundEntityTypeIvEC1IZN5QTest8qCompareI7QStringA6_cEEbRKT_RKT0_PKcSF_SF_iEUlvE0_Lb1EEEPS8_
FNDA:1,_ZN3qxp6detail15BoundEntityTypeIvEC1IZN5QTest8qCompareI7QStringA6_cEEbRKT_RKT0_PKcSF_SF_iEUlvE0_Lb1EEEPS8_
FN:65,_ZN3qxp6detail15BoundEntityTypeIvEC1IZN5QTest8qCompareIbbEEbRKT_RKT0_PKcSD_SD_iEUlvE_Lb1EEEPS6_
FNDA:4,_ZN3qxp6detail15BoundEntityTypeIvEC1IZN5QTest8qCompareIbbEEbRKT_RKT0_PKcSD_SD_iEUlvE_Lb1EEEPS6_
FN:65,_ZN3qxp6detail15BoundEntityTypeIvEC1IZN5QTest8qCompareI7QStringA3_cEEbRKT_RKT0_PKcSF_SF_iEUlvE_Lb1EEEPS8_
FNDA:2,_ZN3qxp6detail15BoundEntityTypeIvEC1IZN5QTest8qCompareI7QStringA3_cEEbRKT_RKT0_PKcSF_SF_iEUlvE_Lb1EEEPS8_
FN:65,_ZN3qxp6detail15BoundEntityTypeIvEC1IZN5QTest8qCompareI7QStringA6_cEEbRKT_RKT0_PKcSF_SF_iEUlvE_Lb1EEEPS8_
FNDA:1,_ZN3qxp6detail15BoundEntityTypeIvEC1IZN5QTest8qCompareI7QStringA6_cEEbRKT_RKT0_PKcSF_SF_iEUlvE_Lb1EEEPS8_
FN:65,_ZN3qxp6detail15BoundEntityTypeIvEC1IZN5QTest8qCompareIbbEEbRKT_RKT0_PKcSD_SD_iEUlvE0_Lb1EEEPS6_
FNDA:4,_ZN3qxp6detail15BoundEntityTypeIvEC1IZN5QTest8qCompareIbbEEbRKT_RKT0_PKcSD_SD_iEUlvE0_Lb1EEEPS6_
FN:65,_ZN3qxp6detail15BoundEntityTypeIvEC1IZN5QTest8qCompareI7QStringA10_cEEbRKT_RKT0_PKcSF_SF_iEUlvE_Lb1EEEPS8_
FNDA:2,_ZN3qxp6detail15BoundEntityTypeIvEC1IZN5QTest8qCompareI7QStringA10_cEEbRKT_RKT0_PKcSF_SF_iEUlvE_Lb1EEEPS8_
FN:65,_ZN3qxp6detail15BoundEntityTypeIvEC1IZN5QTest8qCompareI7QStringA3_cEEbRKT_RKT0_PKcSF_SF_iEUlvE0_Lb1EEEPS8_
FNDA:2,_ZN3qxp6detail15BoundEntityTypeIvEC1IZN5QTest8qCompareI7QStringA3_cEEbRKT_RKT0_PKcSF_SF_iEUlvE0_Lb1EEEPS8_
FN:115,_ZN3qxp6detail17function_ref_baseILb0EvPKcJEEC2IZN5QTest8qCompareI7QStringA18_cEEbRKT_RKT0_S3_S3_S3_iEUlvE0_Lb1EEEOSA_
FNDA:1,_ZN3qxp6detail17function_ref_baseILb0EvPKcJEEC2IZN5QTest8qCompareI7QStringA18_cEEbRKT_RKT0_S3_S3_S3_iEUlvE0_Lb1EEEOSA_
FN:115,_ZN3qxp6detail17function_ref_baseILb0EvPKcJEEC2IZN5QTest8qCompareI7QStringA6_cEEbRKT_RKT0_S3_S3_S3_iEUlvE0_Lb1EEEOSA_
FNDA:1,_ZN3qxp6detail17function_ref_baseILb0EvPKcJEEC2IZN5QTest8qCompareI7QStringA6_cEEbRKT_RKT0_S3_S3_S3_iEUlvE0_Lb1EEEOSA_
FN:115,_ZN3qxp6detail17function_ref_baseILb0EvPKcJEEC2IZN5QTest8qCompareI7QStringA18_cEEbRKT_RKT0_S3_S3_S3_iEUlvE_Lb1EEEOSA_
FNDA:1,_ZN3qxp6detail17function_ref_baseILb0EvPKcJEEC2IZN5QTest8qCompareI7QStringA18_cEEbRKT_RKT0_S3_S3_S3_iEUlvE_Lb1EEEOSA_
FN:115,_ZN3qxp6detail17function_ref_baseILb0EvPKcJEEC2IZN5QTest8qCompareI7QStringA3_cEEbRKT_RKT0_S3_S3_S3_iEUlvE_Lb1EEEOSA_
FNDA:2,_ZN3qxp6detail17function_ref_baseILb0EvPKcJEEC2IZN5QTest8qCompareI7QStringA3_cEEbRKT_RKT0_S3_S3_S3_iEUlvE_Lb1EEEOSA_
FN:115,_ZN3qxp6detail17function_ref_baseILb0EvPKcJEEC2IZN5QTest8qCompareI7QStringA12_cEEbRKT_RKT0_S3_S3_S3_iEUlvE0_Lb1EEEOSA_
FNDA:2,_ZN3qxp6detail17function_ref_baseILb0EvPKcJEEC2IZN5QTest8qCompareI7QStringA12_cEEbRKT_RKT0_S3_S3_S3_iEUlvE0_Lb1EEEOSA_
FN:115,_ZN3qxp6detail17function_ref_baseILb0EvPKcJEEC2IZN5QTest8qCompareI7QStringA3_cEEbRKT_RKT0_S3_S3_S3_iEUlvE0_Lb1EEEOSA_
FNDA:2,_ZN3qxp6detail17function_ref_baseILb0EvPKcJEEC2IZN5QTest8qCompareI7QStringA3_cEEbRKT_RKT0_S3_S3_S3_iEUlvE0_Lb1EEEOSA_
FN:115,_ZN3qxp6detail17function_ref_baseILb0EvPKcJEEC2IZN5QTest8qCompareI7QStringA12_cEEbRKT_RKT0_S3_S3_S3_iEUlvE_Lb1EEEOSA_
FNDA:2,_ZN3qxp6detail17function_ref_baseILb0EvPKcJEEC2IZN5QTest8qCompareI7QStringA12_cEEbRKT_RKT0_S3_S3_S3_iEUlvE_Lb1EEEOSA_
FN:115,_ZN3qxp6detail17function_ref_baseILb0EvPKcJEEC2IZN5QTest8qCompareI7QStringA14_cEEbRKT_RKT0_S3_S3_S3_iEUlvE0_Lb1EEEOSA_
FNDA:1,_ZN3qxp6detail17function_ref_baseILb0EvPKcJEEC2IZN5QTest8qCompareI7QStringA14_cEEbRKT_RKT0_S3_S3_S3_iEUlvE0_Lb1EEEOSA_
FN:115,_ZN3qxp6detail17function_ref_baseILb0EvPKcJEEC2IZN5QTest8qCompareI7QStringA6_cEEbRKT_RKT0_S3_S3_S3_iEUlvE_Lb1EEEOSA_
FNDA:1,_ZN3qxp6detail17function_ref_baseILb0EvPKcJEEC2IZN5QTest8qCompareI7QStringA6_cEEbRKT_RKT0_S3_S3_S3_iEUlvE_Lb1EEEOSA_
FN:115,_ZN3qxp6detail17function_ref_baseILb0EvPKcJEEC2IZN5QTest8qCompareI7QStringA14_cEEbRKT_RKT0_S3_S3_S3_iEUlvE_Lb1EEEOSA_
FNDA:1,_ZN3qxp6detail17function_ref_baseILb0EvPKcJEEC2IZN5QTest8qCompareI7QStringA14_cEEbRKT_RKT0_S3_S3_S3_iEUlvE_Lb1EEEOSA_
FN:115,_ZN3qxp6detail17function_ref_baseILb0EvPKcJEEC2IZN5QTest8qCompareI7QStringA8_cEEbRKT_RKT0_S3_S3_S3_iEUlvE_Lb1EEEOSA_
FNDA:1,_ZN3qxp6detail17function_ref_baseILb0EvPKcJEEC2IZN5QTest8qCompareI7QStringA8_cEEbRKT_RKT0_S3_S3_S3_iEUlvE_Lb1EEEOSA_
FN:115,_ZN3qxp6detail17function_ref_baseILb0EvPKcJEEC2IZN5QTest8qCompareI7QStringA7_cEEbRKT_RKT0_S3_S3_S3_iEUlvE0_Lb1EEEOSA_
FNDA:1,_ZN3qxp6detail17function_ref_baseILb0EvPKcJEEC2IZN5QTest8qCompareI7QStringA7_cEEbRKT_RKT0_S3_S3_S3_iEUlvE0_Lb1EEEOSA_
FN:115,_ZN3qxp6detail17function_ref_baseILb0EvPKcJEEC2IZN5QTest8qCompareI7QStringA7_cEEbRKT_RKT0_S3_S3_S3_iEUlvE_Lb1EEEOSA_
FNDA:1,_ZN3qxp6detail17function_ref_baseILb0EvPKcJEEC2IZN5QTest8qCompareI7QStringA7_cEEbRKT_RKT0_S3_S3_S3_iEUlvE_Lb1EEEOSA_
FN:115,_ZN3qxp6detail17function_ref_baseILb0EvPKcJEEC2IZN5QTest8qCompareIbbEEbRKT_RKT0_S3_S3_S3_iEUlvE_Lb1EEEOS8_
FNDA:4,_ZN3qxp6detail17function_ref_baseILb0EvPKcJEEC2IZN5QTest8qCompareIbbEEbRKT_RKT0_S3_S3_S3_iEUlvE_Lb1EEEOS8_
FN:115,_ZN3qxp6detail17function_ref_baseILb0EvPKcJEEC2IZN5QTest8qCompareI7QStringA8_cEEbRKT_RKT0_S3_S3_S3_iEUlvE0_Lb1EEEOSA_
FNDA:1,_ZN3qxp6detail17function_ref_baseILb0EvPKcJEEC2IZN5QTest8qCompareI7QStringA8_cEEbRKT_RKT0_S3_S3_S3_iEUlvE0_Lb1EEEOSA_
FN:115,_ZN3qxp6detail17function_ref_baseILb0EvPKcJEEC2IZN5QTest8qCompareIbbEEbRKT_RKT0_S3_S3_S3_iEUlvE0_Lb1EEEOS8_
FNDA:4,_ZN3qxp6detail17function_ref_baseILb0EvPKcJEEC2IZN5QTest8qCompareIbbEEbRKT_RKT0_S3_S3_S3_iEUlvE0_Lb1EEEOS8_
FN:115,_ZN3qxp6detail17function_ref_baseILb0EvPKcJEEC2IZN5QTest8qCompareI7QStringA13_cEEbRKT_RKT0_S3_S3_S3_iEUlvE0_Lb1EEEOSA_
FNDA:1,_ZN3qxp6detail17function_ref_baseILb0EvPKcJEEC2IZN5QTest8qCompareI7QStringA13_cEEbRKT_RKT0_S3_S3_S3_iEUlvE0_Lb1EEEOSA_
FN:115,_ZN3qxp6detail17function_ref_baseILb0EvPKcJEEC2IZN5QTest8qCompareI7QStringA10_cEEbRKT_RKT0_S3_S3_S3_iEUlvE_Lb1EEEOSA_
FNDA:2,_ZN3qxp6detail17function_ref_baseILb0EvPKcJEEC2IZN5QTest8qCompareI7QStringA10_cEEbRKT_RKT0_S3_S3_S3_iEUlvE_Lb1EEEOSA_
FN:115,_ZN3qxp6detail17function_ref_baseILb0EvPKcJEEC2IZN5QTest8qCompareI7QStringA13_cEEbRKT_RKT0_S3_S3_S3_iEUlvE_Lb1EEEOSA_
FNDA:1,_ZN3qxp6detail17function_ref_baseILb0EvPKcJEEC2IZN5QTest8qCompareI7QStringA13_cEEbRKT_RKT0_S3_S3_S3_iEUlvE_Lb1EEEOSA_
FN:115,_ZN3qxp6detail17function_ref_baseILb0EvPKcJEEC2IZN5QTest8qCompareI7QStringA10_cEEbRKT_RKT0_S3_S3_S3_iEUlvE0_Lb1EEEOSA_
FNDA:2,_ZN3qxp6detail17function_ref_baseILb0EvPKcJEEC2IZN5QTest8qCompareI7QStringA10_cEEbRKT_RKT0_S3_S3_S3_iEUlvE0_Lb1EEEOSA_
FN:117,_ZZN3qxp6detail17function_ref_baseILb0EvPKcJEEC4IZN5QTest8qCompareI7QStringA10_cEEbRKT_RKT0_S3_S3_S3_iEUlvE_Lb1EEEOSA_ENKUlNS0_15BoundEntityTypeIvEEE_clESJ_
FNDA:0,_ZZN3qxp6detail17function_ref_baseILb0EvPKcJEEC4IZN5QTest8qCompareI7QStringA10_cEEbRKT_RKT0_S3_S3_S3_iEUlvE_Lb1EEEOSA_ENKUlNS0_15BoundEntityTypeIvEEE_clESJ_
FN:117,_ZZN3qxp6detail17function_ref_baseILb0EvPKcJEEC4IZN5QTest8qCompareI7QStringA3_cEEbRKT_RKT0_S3_S3_S3_iEUlvE0_Lb1EEEOSA_ENKUlNS0_15BoundEntityTypeIvEEE_clESJ_
FNDA:0,_ZZN3qxp6detail17function_ref_baseILb0EvPKcJEEC4IZN5QTest8qCompareI7QStringA3_cEEbRKT_RKT0_S3_S3_S3_iEUlvE0_Lb1EEEOSA_ENKUlNS0_15BoundEntityTypeIvEEE_clESJ_
FN:117,_ZZN3qxp6detail17function_ref_baseILb0EvPKcJEEC4IZN5QTest8qCompareI7QStringA3_cEEbRKT_RKT0_S3_S3_S3_iEUlvE_Lb1EEEOSA_ENKUlNS0_15BoundEntityTypeIvEEE_clESJ_
FNDA:0,_ZZN3qxp6detail17function_ref_baseILb0EvPKcJEEC4IZN5QTest8qCompareI7QStringA3_cEEbRKT_RKT0_S3_S3_S3_iEUlvE_Lb1EEEOSA_ENKUlNS0_15BoundEntityTypeIvEEE_clESJ_
FN:117,_ZZN3qxp6detail17function_ref_baseILb0EvPKcJEEC4IZN5QTest8qCompareI7QStringA6_cEEbRKT_RKT0_S3_S3_S3_iEUlvE_Lb1EEEOSA_ENKUlNS0_15BoundEntityTypeIvEEE_clESJ_
FNDA:0,_ZZN3qxp6detail17function_ref_baseILb0EvPKcJEEC4IZN5QTest8qCompareI7QStringA6_cEEbRKT_RKT0_S3_S3_S3_iEUlvE_Lb1EEEOSA_ENKUlNS0_15BoundEntityTypeIvEEE_clESJ_
FN:117,_ZZN3qxp6detail17function_ref_baseILb0EvPKcJEEC4IZN5QTest8qCompareIbbEEbRKT_RKT0_S3_S3_S3_iEUlvE0_Lb1EEEOS8_ENKUlNS0_15BoundEntityTypeIvEEE_clESH_
FNDA:0,_ZZN3qxp6detail17function_ref_baseILb0EvPKcJEEC4IZN5QTest8qCompareIbbEEbRKT_RKT0_S3_S3_S3_iEUlvE0_Lb1EEEOS8_ENKUlNS0_15BoundEntityTypeIvEEE_clESH_
FN:117,_ZZN3qxp6detail17function_ref_baseILb0EvPKcJEEC4IZN5QTest8qCompareI7QStringA6_cEEbRKT_RKT0_S3_S3_S3_iEUlvE0_Lb1EEEOSA_ENKUlNS0_15BoundEntityTypeIvEEE_clESJ_
FNDA:0,_ZZN3qxp6detail17function_ref_baseILb0EvPKcJEEC4IZN5QTest8qCompareI7QStringA6_cEEbRKT_RKT0_S3_S3_S3_iEUlvE0_Lb1EEEOSA_ENKUlNS0_15BoundEntityTypeIvEEE_clESJ_
FN:117,_ZZN3qxp6detail17function_ref_baseILb0EvPKcJEEC4IZN5QTest8qCompareI7QStringA10_cEEbRKT_RKT0_S3_S3_S3_iEUlvE0_Lb1EEEOSA_ENKUlNS0_15BoundEntityTypeIvEEE_clESJ_
FNDA:0,_ZZN3qxp6detail17function_ref_baseILb0EvPKcJEEC4IZN5QTest8qCompareI7QStringA10_cEEbRKT_RKT0_S3_S3_S3_iEUlvE0_Lb1EEEOSA_ENKUlNS0_15BoundEntityTypeIvEEE_clESJ_
FN:117,_ZZN3qxp6detail17function_ref_baseILb0EvPKcJEEC4IZN5QTest8qCompareIbbEEbRKT_RKT0_S3_S3_S3_iEUlvE_Lb1EEEOS8_ENKUlNS0_15BoundEntityTypeIvEEE_clESH_
FNDA:0,_ZZN3qxp6detail17function_ref_baseILb0EvPKcJEEC4IZN5QTest8qCompareIbbEEbRKT_RKT0_S3_S3_S3_iEUlvE_Lb1EEEOS8_ENKUlNS0_15BoundEntityTypeIvEEE_clESH_
FN:117,_ZZN3qxp6detail17function_ref_baseILb0EvPKcJEEC4IZN5QTest8qCompareI7QStringA14_cEEbRKT_RKT0_S3_S3_S3_iEUlvE_Lb1EEEOSA_ENKUlNS0_15BoundEntityTypeIvEEE_clESJ_
FNDA:0,_ZZN3qxp6detail17function_ref_baseILb0EvPKcJEEC4IZN5QTest8qCompareI7QStringA14_cEEbRKT_RKT0_S3_S3_S3_iEUlvE_Lb1EEEOSA_ENKUlNS0_15BoundEntityTypeIvEEE_clESJ_
FN:117,_ZZN3qxp6detail17function_ref_baseILb0EvPKcJEEC4IZN5QTest8qCompareI7QStringA7_cEEbRKT_RKT0_S3_S3_S3_iEUlvE0_Lb1EEEOSA_ENKUlNS0_15BoundEntityTypeIvEEE_clESJ_
FNDA:0,_ZZN3qxp6detail17function_ref_baseILb0EvPKcJEEC4IZN5QTest8qCompareI7QStringA7_cEEbRKT_RKT0_S3_S3_S3_iEUlvE0_Lb1EEEOSA_ENKUlNS0_15BoundEntityTypeIvEEE_clESJ_
FN:117,_ZZN3qxp6detail17function_ref_baseILb0EvPKcJEEC4IZN5QTest8qCompareI7QStringA14_cEEbRKT_RKT0_S3_S3_S3_iEUlvE0_Lb1EEEOSA_ENKUlNS0_15BoundEntityTypeIvEEE_clESJ_
FNDA:0,_ZZN3qxp6detail17function_ref_baseILb0EvPKcJEEC4IZN5QTest8qCompareI7QStringA14_cEEbRKT_RKT0_S3_S3_S3_iEUlvE0_Lb1EEEOSA_ENKUlNS0_15BoundEntityTypeIvEEE_clESJ_
FN:117,_ZZN3qxp6detail17function_ref_baseILb0EvPKcJEEC4IZN5QTest8qCompareI7QStringA7_cEEbRKT_RKT0_S3_S3_S3_iEUlvE_Lb1EEEOSA_ENKUlNS0_15BoundEntityTypeIvEEE_clESJ_
FNDA:0,_ZZN3qxp6detail17function_ref_baseILb0EvPKcJEEC4IZN5QTest8qCompareI7QStringA7_cEEbRKT_RKT0_S3_S3_S3_iEUlvE_Lb1EEEOSA_ENKUlNS0_15BoundEntityTypeIvEEE_clESJ_
FN:117,_ZZN3qxp6detail17function_ref_baseILb0EvPKcJEEC4IZN5QTest8qCompareI7QStringA12_cEEbRKT_RKT0_S3_S3_S3_iEUlvE_Lb1EEEOSA_ENKUlNS0_15BoundEntityTypeIvEEE_clESJ_
FNDA:0,_ZZN3qxp6detail17function_ref_baseILb0EvPKcJEEC4IZN5QTest8qCompareI7QStringA12_cEEbRKT_RKT0_S3_S3_S3_iEUlvE_Lb1EEEOSA_ENKUlNS0_15BoundEntityTypeIvEEE_clESJ_
FN:117,_ZZN3qxp6detail17function_ref_baseILb0EvPKcJEEC4IZN5QTest8qCompareI7QStringA8_cEEbRKT_RKT0_S3_S3_S3_iEUlvE0_Lb1EEEOSA_ENKUlNS0_15BoundEntityTypeIvEEE_clESJ_
FNDA:0,_ZZN3qxp6detail17function_ref_baseILb0EvPKcJEEC4IZN5QTest8qCompareI7QStringA8_cEEbRKT_RKT0_S3_S3_S3_iEUlvE0_Lb1EEEOSA_ENKUlNS0_15BoundEntityTypeIvEEE_clESJ_
FN:117,_ZZN3qxp6detail17function_ref_baseILb0EvPKcJEEC4IZN5QTest8qCompareI7QStringA12_cEEbRKT_RKT0_S3_S3_S3_iEUlvE0_Lb1EEEOSA_ENKUlNS0_15BoundEntityTypeIvEEE_clESJ_
FNDA:0,_ZZN3qxp6detail17function_ref_baseILb0EvPKcJEEC4IZN5QTest8qCompareI7QStringA12_cEEbRKT_RKT0_S3_S3_S3_iEUlvE0_Lb1EEEOSA_ENKUlNS0_15BoundEntityTypeIvEEE_clESJ_
FN:117,_ZZN3qxp6detail17function_ref_baseILb0EvPKcJEEC4IZN5QTest8qCompareI7QStringA8_cEEbRKT_RKT0_S3_S3_S3_iEUlvE_Lb1EEEOSA_ENKUlNS0_15BoundEntityTypeIvEEE_clESJ_
FNDA:0,_ZZN3qxp6detail17function_ref_baseILb0EvPKcJEEC4IZN5QTest8qCompareI7QStringA8_cEEbRKT_RKT0_S3_S3_S3_iEUlvE_Lb1EEEOSA_ENKUlNS0_15BoundEntityTypeIvEEE_clESJ_
FN:117,_ZZN3qxp6detail17function_ref_baseILb0EvPKcJEEC4IZN5QTest8qCompareI7QStringA18_cEEbRKT_RKT0_S3_S3_S3_iEUlvE_Lb1EEEOSA_ENKUlNS0_15BoundEntityTypeIvEEE_clESJ_
FNDA:0,_ZZN3qxp6detail17function_ref_baseILb0EvPKcJEEC4IZN5QTest8qCompareI7QStringA18_cEEbRKT_RKT0_S3_S3_S3_iEUlvE_Lb1EEEOSA_ENKUlNS0_15BoundEntityTypeIvEEE_clESJ_
FN:117,_ZZN3qxp6detail17function_ref_baseILb0EvPKcJEEC4IZN5QTest8qCompareI7QStringA13_cEEbRKT_RKT0_S3_S3_S3_iEUlvE0_Lb1EEEOSA_ENKUlNS0_15BoundEntityTypeIvEEE_clESJ_
FNDA:0,_ZZN3qxp6detail17function_ref_baseILb0EvPKcJEEC4IZN5QTest8qCompareI7QStringA13_cEEbRKT_RKT0_S3_S3_S3_iEUlvE0_Lb1EEEOSA_ENKUlNS0_15BoundEntityTypeIvEEE_clESJ_
FN:117,_ZZN3qxp6detail17function_ref_baseILb0EvPKcJEEC4IZN5QTest8qCompareI7QStringA18_cEEbRKT_RKT0_S3_S3_S3_iEUlvE0_Lb1EEEOSA_ENKUlNS0_15BoundEntityTypeIvEEE_clESJ_
FNDA:0,_ZZN3qxp6detail17function_ref_baseILb0EvPKcJEEC4IZN5QTest8qCompareI7QStringA18_cEEbRKT_RKT0_S3_S3_S3_iEUlvE0_Lb1EEEOSA_ENKUlNS0_15BoundEntityTypeIvEEE_clESJ_
FN:117,_ZZN3qxp6detail17function_ref_baseILb0EvPKcJEEC4IZN5QTest8qCompareI7QStringA13_cEEbRKT_RKT0_S3_S3_S3_iEUlvE_Lb1EEEOSA_ENKUlNS0_15BoundEntityTypeIvEEE_clESJ_
FNDA:0,_ZZN3qxp6detail17function_ref_baseILb0EvPKcJEEC4IZN5QTest8qCompareI7QStringA13_cEEbRKT_RKT0_S3_S3_S3_iEUlvE_Lb1EEEOSA_ENKUlNS0_15BoundEntityTypeIvEEE_clESJ_
DA:65,1
DA:66,1
DA:65,2
DA:66,2
DA:65,2
DA:66,2
DA:65,1
DA:66,1
DA:65,1
DA:66,1
DA:65,1
DA:66,1
DA:65,1
DA:66,1
DA:65,2
DA:66,2
DA:65,2
DA:66,2
DA:65,1
DA:66,1
DA:65,2
DA:66,2
DA:65,1
DA:66,1
DA:65,1
DA:66,1
DA:65,1
DA:66,1
DA:65,1
DA:66,1
DA:65,1
DA:66,1
DA:65,1
DA:66,1
DA:65,4
DA:66,4
DA:65,4
DA:66,4
DA:65,2
DA:66,2
DA:115,1
DA:116,1
DA:117,1
DA:122,1
DA:115,2
DA:116,2
DA:117,2
DA:122,2
DA:115,2
DA:116,2
DA:117,2
DA:122,2
DA:115,1
DA:116,1
DA:117,1
DA:122,1
DA:115,1
DA:116,1
DA:117,1
DA:122,1
DA:115,1
DA:116,1
DA:117,1
DA:122,1
DA:115,1
DA:116,1
DA:117,1
DA:122,1
DA:115,2
DA:116,2
DA:117,2
DA:122,2
DA:115,2
DA:116,2
DA:117,2
DA:122,2
DA:115,1
DA:116,1
DA:117,1
DA:122,1
DA:115,2
DA:116,2
DA:117,2
DA:122,2
DA:115,1
DA:116,1
DA:117,1
DA:122,1
DA:115,1
DA:116,1
DA:117,1
DA:122,1
DA:115,1
DA:116,1
DA:117,1
DA:122,1
DA:115,1
DA:116,1
DA:117,1
DA:122,1
DA:115,1
DA:116,1
DA:117,1
DA:122,1
DA:115,1
DA:116,1
DA:117,1
DA:122,1
DA:115,4
DA:116,4
DA:117,4
DA:122,4
DA:115,4
DA:116,4
DA:117,4
DA:122,4
DA:115,2
DA:116,2
DA:117,2
DA:122,2
DA:117,0
DA:117,0
DA:117,0
DA:117,0
DA:117,0
DA:117,0
DA:117,0
DA:117,0
DA:117,0
DA:117,0
DA:117,0
DA:117,0
DA:117,0
DA:117,0
DA:117,0
DA:117,0
DA:117,0
DA:117,0
DA:117,0
DA:117,0
DA:119,0
DA:120,0
end_of_record
SF:C:
Users
USER
Documents
UFMG
6
teste
testes_tp
build/C:/Qt/6.6.0/mingw_64/include/QtTest/qtest.h
FN:51,_ZN5QTest8toStringI11QStringViewEEPcRKT_
FNDA:0,_ZN5QTest8toStringI11QStringViewEEPcRKT_
FN:56,_ZN5QTest8toStringI7QStringEEPcRKT_
FNDA:0,_ZN5QTest8toStringI7QStringEEPcRKT_
FN:419,_ZN5QTest18_q_compareSequenceIN5QListI7QStringE14const_iteratorES4_EEbT_S5_T0_S6_PKcS8_S8_i
FNDA:4,_ZN5QTest18_q_compareSequenceIN5QListI7QStringE14const_iteratorES4_EEbT_S5_T0_S6_PKcS8_S8_i
FN:470,_ZN5QTest8qCompareI7QStringEEbRK5QListIT_ES6_PKcS8_S8_i
FNDA:4,_ZN5QTest8qCompareI7QStringEEbRK5QListIT_ES6_PKcS8_S8_i
FN:576,_ZN5QTest8Internal12callInitMainI17testes_de_unidadeEENSt9enable_ifIXntsrNS0_11HasInitMainIT_EE5valueEvE4typeEv
FNDA:1,_ZN5QTest8Internal12callInitMainI17testes_de_unidadeEENSt9enable_ifIXntsrNS0_11HasInitMainIT_EE5valueEvE4typeEv
DA:51,0
DA:53,0
DA:56,0
DA:58,0
DA:419,4
DA:425,4
DA:427,4
DA:428,4
DA:429,4
DA:431,4
DA:432,0
DA:438,24
DA:439,20
DA:440,0
DA:441,0
DA:442,0
DA:444,0
DA:448,0
DA:450,0
DA:451,0
DA:454,8
DA:470,4
DA:473,4
DA:474,4
DA:576,1
DA:578,1
end_of_record
SF:C:
Users
USER
Documents
UFMG
6
teste
testes_tp
build/C:/Qt/6.6.0/mingw_64/include/QtCore/qatomic_cxx11.h
FN:199,_ZN10QAtomicOpsIiE11loadRelaxedIiEET_RKSt6atomicIS2_E
FNDA:2269,_ZN10QAtomicOpsIiE11loadRelaxedIiEET_RKSt6atomicIS2_E
FN:243,_ZN10QAtomicOpsIiE3refIiEEbRSt6atomicIT_E
FNDA:1674,_ZN10QAtomicOpsIiE3refIiEEbRSt6atomicIT_E
FN:262,_ZN10QAtomicOpsIiE5derefIiEEbRSt6atomicIT_E
FNDA:4267,_ZN10QAtomicOpsIiE5derefIiEEbRSt6atomicIT_E
DA:199,2269
DA:201,4538
DA:243,1674
DA:258,3348
DA:262,4267
DA:265,8534
end_of_record
SF:C:
Users
USER
Documents
UFMG
6
teste
testes_tp
build/C:/Qt/6.6.0/mingw_64/include/QtCore/qrect.h
FN:154,_ZN5QRectC1Eiiii
FNDA:70,_ZN5QRectC1Eiiii
FN:232,_ZNK5QRect6centerEv
FNDA:7,_ZNK5QRect6centerEv
FN:235,_ZNK5QRect5widthEv
FNDA:6,_ZNK5QRect5widthEv
FN:238,_ZNK5QRect6heightEv
FNDA:6,_ZNK5QRect6heightEv
FN:241,_ZNK5QRect4sizeEv
FNDA:0,_ZNK5QRect4sizeEv
DA:154,70
DA:155,70
DA:232,7
DA:233,7
DA:235,6
DA:236,6
DA:238,6
DA:239,6
DA:241,0
DA:242,0
end_of_record
SF:C:
Users
USER
Documents
UFMG
6
teste
testes_tp
build/C:/Qt/6.6.0/mingw_64/include/QtCore/qobjectdefs.h
FN:484,_ZN11QMetaObject16staticMetaObjectIL_ZN7QObject16staticMetaObjectEEEEPKS_v
FNDA:186,_ZN11QMetaObject16staticMetaObjectIL_ZN7QObject16staticMetaObjectEEEEPKS_v
DA:484,186
DA:486,186
end_of_record
SF:C:
Users
USER
Documents
UFMG
6
teste
testes_tp
build/C:/Qt/6.6.0/mingw_64/include/QtTest/qtestmouse.h
FN:67,_ZN5QTestL10mouseEventENS_11MouseActionEP7QWindowN2Qt11MouseButtonE6QFlagsINS3_16KeyboardModifierEE6QPointi
FNDA:0,_ZN5QTestL10mouseEventENS_11MouseActionEP7QWindowN2Qt11MouseButtonE6QFlagsINS3_16KeyboardModifierEE6QPointi
FN:149,_ZN5QTestL10mouseEventENS_11MouseActionEP7QWidgetN2Qt11MouseButtonE6QFlagsINS3_16KeyboardModifierEE6QPointi
FNDA:21,_ZN5QTestL10mouseEventENS_11MouseActionEP7QWidgetN2Qt11MouseButtonE6QFlagsINS3_16KeyboardModifierEE6QPointi
FN:231,_ZN5QTest10mouseClickEP7QWidgetN2Qt11MouseButtonE6QFlagsINS2_16KeyboardModifierEE6QPointi
FNDA:7,_ZN5QTest10mouseClickEP7QWidgetN2Qt11MouseButtonE6QFlagsINS2_16KeyboardModifierEE6QPointi
DA:67,0
DA:70,0
DA:74,0
DA:75,0
DA:76,0
DA:80,0
DA:81,0
DA:83,0
DA:84,0
DA:86,0
DA:88,0
DA:90,0
DA:91,0
DA:94,0
DA:96,0
DA:97,0
DA:98,0
DA:100,0
DA:101,0
DA:104,0
DA:106,0
DA:107,0
DA:109,0
DA:110,0
DA:113,0
DA:114,0
DA:116,0
DA:117,0
DA:118,0
DA:119,0
DA:120,0
DA:122,0
DA:123,0
DA:124,0
DA:126,0
DA:127,0
DA:149,21
DA:152,21
DA:154,21
DA:155,6
DA:164,21
DA:165,21
DA:166,21
DA:168,21
DA:169,7
DA:170,7
DA:171,7
DA:174,14
DA:176,14
DA:180,14
DA:182,7
DA:183,7
DA:184,7
DA:185,7
DA:186,7
DA:187,7
DA:188,7
DA:189,7
DA:190,0
DA:191,0
DA:192,0
DA:193,0
DA:194,0
DA:198,0
DA:199,0
DA:200,0
DA:201,0
DA:203,0
DA:204,0
DA:205,0
DA:206,0
DA:208,28
DA:209,14
DA:210,14
DA:211,7
DA:213,14
DA:214,14
DA:217,0
DA:218,0
DA:231,7
DA:234,7
end_of_record
SF:C:
Users
USER
Documents
UFMG
6
teste
testes_tp
build/C:/Qt/6.6.0/mingw_64/include/QtCore/qcoreapplication.h
FN:96,_ZN16QCoreApplication8instanceEv
FNDA:874,_ZN16QCoreApplication8instanceEv
DA:96,874
end_of_record
SF:C:
Users
USER
Documents
UFMG
6
teste
testes_tp
build/C:/Qt/6.6.0/mingw_64/include/QtCore/qsharedpointer_impl.h
FN:112,_ZN15QtSharedPointer20ExternalRefCountDataD1Ev
FNDA:0,_ZN15QtSharedPointer20ExternalRefCountDataD1Ev
FN:130,_ZN15QtSharedPointer20ExternalRefCountDatadlEPv
FNDA:0,_ZN15QtSharedPointer20ExternalRefCountDatadlEPv
FN:555,_ZN12QWeakPointerI7QObjectED1Ev
FNDA:172,_ZN12QWeakPointerI7QObjectED1Ev
FN:685,_ZN12QWeakPointerI7QObjectEC1I7QWidgetLb1EEEPT_b
FNDA:172,_ZN12QWeakPointerI7QObjectEC1I7QWidgetLb1EEEPT_b
FN:685,_ZN12QWeakPointerI7QObjectEC1I7QWindowLb1EEEPT_b
FNDA:0,_ZN12QWeakPointerI7QObjectEC1I7QWindowLb1EEEPT_b
FN:702,_ZNK12QWeakPointerI7QObjectE12internalDataEv
FNDA:172,_ZNK12QWeakPointerI7QObjectE12internalDataEv
DA:112,0
DA:130,0
DA:555,172
DA:685,172
DA:686,172
DA:685,0
DA:686,0
DA:702,172
DA:704,172
end_of_record
SF:C:
Users
USER
Documents
UFMG
6
teste
testes_tp
build/C:/Qt/6.6.0/mingw_64/include/QtCore/qobject_impl.h
FN:39,_ZN9QtPrivate15ConnectionTypesINS_4ListIJbEEELb1EE5typesEv
FNDA:0,_ZN9QtPrivate15ConnectionTypesINS_4ListIJbEEELb1EE5typesEv
DA:39,0
end_of_record
SF:C:
Users
USER
Documents
UFMG
6
teste
testes_tp
build/C:/Qt/6.6.0/mingw_64/include/QtCore/q23functional.h
FN:35,_ZN3q238invoke_rIPKcRZN5QTest8qCompareI7QStringA18_cEEbRKT_RKT0_S2_S2_S2_iEUlvE0_JEEENSt9enable_ifIX16is_invocable_r_vIS7_SA_DpT1_EES7_E4typeEOSA_DpOSG_
FNDA:0,_ZN3q238invoke_rIPKcRZN5QTest8qCompareI7QStringA18_cEEbRKT_RKT0_S2_S2_S2_iEUlvE0_JEEENSt9enable_ifIX16is_invocable_r_vIS7_SA_DpT1_EES7_E4typeEOSA_DpOSG_
FN:35,_ZN3q238invoke_rIPKcRZN5QTest8qCompareI7QStringA3_cEEbRKT_RKT0_S2_S2_S2_iEUlvE_JEEENSt9enable_ifIX16is_invocable_r_vIS7_SA_DpT1_EES7_E4typeEOSA_DpOSG_
FNDA:0,_ZN3q238invoke_rIPKcRZN5QTest8qCompareI7QStringA3_cEEbRKT_RKT0_S2_S2_S2_iEUlvE_JEEENSt9enable_ifIX16is_invocable_r_vIS7_SA_DpT1_EES7_E4typeEOSA_DpOSG_
FN:35,_ZN3q238invoke_rIPKcRZN5QTest8qCompareI7QStringA3_cEEbRKT_RKT0_S2_S2_S2_iEUlvE0_JEEENSt9enable_ifIX16is_invocable_r_vIS7_SA_DpT1_EES7_E4typeEOSA_DpOSG_
FNDA:0,_ZN3q238invoke_rIPKcRZN5QTest8qCompareI7QStringA3_cEEbRKT_RKT0_S2_S2_S2_iEUlvE0_JEEENSt9enable_ifIX16is_invocable_r_vIS7_SA_DpT1_EES7_E4typeEOSA_DpOSG_
FN:35,_ZN3q238invoke_rIPKcRZN5QTest8qCompareI7QStringA6_cEEbRKT_RKT0_S2_S2_S2_iEUlvE_JEEENSt9enable_ifIX16is_invocable_r_vIS7_SA_DpT1_EES7_E4typeEOSA_DpOSG_
FNDA:0,_ZN3q238invoke_rIPKcRZN5QTest8qCompareI7QStringA6_cEEbRKT_RKT0_S2_S2_S2_iEUlvE_JEEENSt9enable_ifIX16is_invocable_r_vIS7_SA_DpT1_EES7_E4typeEOSA_DpOSG_
FN:35,_ZN3q238invoke_rIPKcRZN5QTest8qCompareI7QStringA6_cEEbRKT_RKT0_S2_S2_S2_iEUlvE0_JEEENSt9enable_ifIX16is_invocable_r_vIS7_SA_DpT1_EES7_E4typeEOSA_DpOSG_
FNDA:0,_ZN3q238invoke_rIPKcRZN5QTest8qCompareI7QStringA6_cEEbRKT_RKT0_S2_S2_S2_iEUlvE0_JEEENSt9enable_ifIX16is_invocable_r_vIS7_SA_DpT1_EES7_E4typeEOSA_DpOSG_
FN:35,_ZN3q238invoke_rIPKcRZN5QTest8qCompareI7QStringA14_cEEbRKT_RKT0_S2_S2_S2_iEUlvE_JEEENSt9enable_ifIX16is_invocable_r_vIS7_SA_DpT1_EES7_E4typeEOSA_DpOSG_
FNDA:0,_ZN3q238invoke_rIPKcRZN5QTest8qCompareI7QStringA14_cEEbRKT_RKT0_S2_S2_S2_iEUlvE_JEEENSt9enable_ifIX16is_invocable_r_vIS7_SA_DpT1_EES7_E4typeEOSA_DpOSG_
FN:35,_ZN3q238invoke_rIPKcRZN5QTest8qCompareI7QStringA14_cEEbRKT_RKT0_S2_S2_S2_iEUlvE0_JEEENSt9enable_ifIX16is_invocable_r_vIS7_SA_DpT1_EES7_E4typeEOSA_DpOSG_
FNDA:0,_ZN3q238invoke_rIPKcRZN5QTest8qCompareI7QStringA14_cEEbRKT_RKT0_S2_S2_S2_iEUlvE0_JEEENSt9enable_ifIX16is_invocable_r_vIS7_SA_DpT1_EES7_E4typeEOSA_DpOSG_
FN:35,_ZN3q238invoke_rIPKcRZN5QTest8qCompareI7QStringA12_cEEbRKT_RKT0_S2_S2_S2_iEUlvE_JEEENSt9enable_ifIX16is_invocable_r_vIS7_SA_DpT1_EES7_E4typeEOSA_DpOSG_
FNDA:0,_ZN3q238invoke_rIPKcRZN5QTest8qCompareI7QStringA12_cEEbRKT_RKT0_S2_S2_S2_iEUlvE_JEEENSt9enable_ifIX16is_invocable_r_vIS7_SA_DpT1_EES7_E4typeEOSA_DpOSG_
FN:35,_ZN3q238invoke_rIPKcRZN5QTest8qCompareI7QStringA12_cEEbRKT_RKT0_S2_S2_S2_iEUlvE0_JEEENSt9enable_ifIX16is_invocable_r_vIS7_SA_DpT1_EES7_E4typeEOSA_DpOSG_
FNDA:0,_ZN3q238invoke_rIPKcRZN5QTest8qCompareI7QStringA12_cEEbRKT_RKT0_S2_S2_S2_iEUlvE0_JEEENSt9enable_ifIX16is_invocable_r_vIS7_SA_DpT1_EES7_E4typeEOSA_DpOSG_
FN:35,_ZN3q238invoke_rIPKcRZN5QTest8qCompareI7QStringA18_cEEbRKT_RKT0_S2_S2_S2_iEUlvE_JEEENSt9enable_ifIX16is_invocable_r_vIS7_SA_DpT1_EES7_E4typeEOSA_DpOSG_
FNDA:0,_ZN3q238invoke_rIPKcRZN5QTest8qCompareI7QStringA18_cEEbRKT_RKT0_S2_S2_S2_iEUlvE_JEEENSt9enable_ifIX16is_invocable_r_vIS7_SA_DpT1_EES7_E4typeEOSA_DpOSG_
FN:35,_ZN3q238invoke_rIPKcRZN5QTest8qCompareI7QStringA10_cEEbRKT_RKT0_S2_S2_S2_iEUlvE0_JEEENSt9enable_ifIX16is_invocable_r_vIS7_SA_DpT1_EES7_E4typeEOSA_DpOSG_
FNDA:0,_ZN3q238invoke_rIPKcRZN5QTest8qCompareI7QStringA10_cEEbRKT_RKT0_S2_S2_S2_iEUlvE0_JEEENSt9enable_ifIX16is_invocable_r_vIS7_SA_DpT1_EES7_E4typeEOSA_DpOSG_
FN:35,_ZN3q238invoke_rIPKcRZN5QTest8qCompareI7QStringA13_cEEbRKT_RKT0_S2_S2_S2_iEUlvE_JEEENSt9enable_ifIX16is_invocable_r_vIS7_SA_DpT1_EES7_E4typeEOSA_DpOSG_
FNDA:0,_ZN3q238invoke_rIPKcRZN5QTest8qCompareI7QStringA13_cEEbRKT_RKT0_S2_S2_S2_iEUlvE_JEEENSt9enable_ifIX16is_invocable_r_vIS7_SA_DpT1_EES7_E4typeEOSA_DpOSG_
FN:35,_ZN3q238invoke_rIPKcRZN5QTest8qCompareI7QStringA13_cEEbRKT_RKT0_S2_S2_S2_iEUlvE0_JEEENSt9enable_ifIX16is_invocable_r_vIS7_SA_DpT1_EES7_E4typeEOSA_DpOSG_
FNDA:0,_ZN3q238invoke_rIPKcRZN5QTest8qCompareI7QStringA13_cEEbRKT_RKT0_S2_S2_S2_iEUlvE0_JEEENSt9enable_ifIX16is_invocable_r_vIS7_SA_DpT1_EES7_E4typeEOSA_DpOSG_
FN:35,_ZN3q238invoke_rIPKcRZN5QTest8qCompareI7QStringA8_cEEbRKT_RKT0_S2_S2_S2_iEUlvE_JEEENSt9enable_ifIX16is_invocable_r_vIS7_SA_DpT1_EES7_E4typeEOSA_DpOSG_
FNDA:0,_ZN3q238invoke_rIPKcRZN5QTest8qCompareI7QStringA8_cEEbRKT_RKT0_S2_S2_S2_iEUlvE_JEEENSt9enable_ifIX16is_invocable_r_vIS7_SA_DpT1_EES7_E4typeEOSA_DpOSG_
FN:35,_ZN3q238invoke_rIPKcRZN5QTest8qCompareI7QStringA8_cEEbRKT_RKT0_S2_S2_S2_iEUlvE0_JEEENSt9enable_ifIX16is_invocable_r_vIS7_SA_DpT1_EES7_E4typeEOSA_DpOSG_
FNDA:0,_ZN3q238invoke_rIPKcRZN5QTest8qCompareI7QStringA8_cEEbRKT_RKT0_S2_S2_S2_iEUlvE0_JEEENSt9enable_ifIX16is_invocable_r_vIS7_SA_DpT1_EES7_E4typeEOSA_DpOSG_
FN:35,_ZN3q238invoke_rIPKcRZN5QTest8qCompareI7QStringA7_cEEbRKT_RKT0_S2_S2_S2_iEUlvE_JEEENSt9enable_ifIX16is_invocable_r_vIS7_SA_DpT1_EES7_E4typeEOSA_DpOSG_
FNDA:0,_ZN3q238invoke_rIPKcRZN5QTest8qCompareI7QStringA7_cEEbRKT_RKT0_S2_S2_S2_iEUlvE_JEEENSt9enable_ifIX16is_invocable_r_vIS7_SA_DpT1_EES7_E4typeEOSA_DpOSG_
FN:35,_ZN3q238invoke_rIPKcRZN5QTest8qCompareI7QStringA7_cEEbRKT_RKT0_S2_S2_S2_iEUlvE0_JEEENSt9enable_ifIX16is_invocable_r_vIS7_SA_DpT1_EES7_E4typeEOSA_DpOSG_
FNDA:0,_ZN3q238invoke_rIPKcRZN5QTest8qCompareI7QStringA7_cEEbRKT_RKT0_S2_S2_S2_iEUlvE0_JEEENSt9enable_ifIX16is_invocable_r_vIS7_SA_DpT1_EES7_E4typeEOSA_DpOSG_
FN:35,_ZN3q238invoke_rIPKcRZN5QTest8qCompareIbbEEbRKT_RKT0_S2_S2_S2_iEUlvE_JEEENSt9enable_ifIX16is_invocable_r_vIS5_S8_DpT1_EES5_E4typeEOS8_DpOSE_
FNDA:0,_ZN3q238invoke_rIPKcRZN5QTest8qCompareIbbEEbRKT_RKT0_S2_S2_S2_iEUlvE_JEEENSt9enable_ifIX16is_invocable_r_vIS5_S8_DpT1_EES5_E4typeEOS8_DpOSE_
FN:35,_ZN3q238invoke_rIPKcRZN5QTest8qCompareIbbEEbRKT_RKT0_S2_S2_S2_iEUlvE0_JEEENSt9enable_ifIX16is_invocable_r_vIS5_S8_DpT1_EES5_E4typeEOS8_DpOSE_
FNDA:0,_ZN3q238invoke_rIPKcRZN5QTest8qCompareIbbEEbRKT_RKT0_S2_S2_S2_iEUlvE0_JEEENSt9enable_ifIX16is_invocable_r_vIS5_S8_DpT1_EES5_E4typeEOS8_DpOSE_
FN:35,_ZN3q238invoke_rIPKcRZN5QTest8qCompareI7QStringA10_cEEbRKT_RKT0_S2_S2_S2_iEUlvE_JEEENSt9enable_ifIX16is_invocable_r_vIS7_SA_DpT1_EES7_E4typeEOSA_DpOSG_
FNDA:0,_ZN3q238invoke_rIPKcRZN5QTest8qCompareI7QStringA10_cEEbRKT_RKT0_S2_S2_S2_iEUlvE_JEEENSt9enable_ifIX16is_invocable_r_vIS7_SA_DpT1_EES7_E4typeEOSA_DpOSG_
DA:35,0
DA:42,0
DA:35,0
DA:42,0
DA:35,0
DA:42,0
DA:35,0
DA:42,0
DA:35,0
DA:42,0
DA:35,0
DA:42,0
DA:35,0
DA:42,0
DA:35,0
DA:42,0
DA:35,0
DA:42,0
DA:35,0
DA:42,0
DA:35,0
DA:42,0
DA:35,0
DA:42,0
DA:35,0
DA:42,0
DA:35,0
DA:42,0
DA:35,0
DA:42,0
DA:35,0
DA:42,0
DA:35,0
DA:42,0
DA:35,0
DA:42,0
DA:35,0
DA:42,0
DA:35,0
DA:42,0
end_of_record
SF:C:
Users
USER
Documents
UFMG
6
teste
testes_tp
build/C:/Qt/6.6.0/mingw_64/include/QtCore/qatomic.h
FN:21,_ZN14QAtomicIntegerIiEC2Ei
FNDA:14,_ZN14QAtomicIntegerIiEC2Ei
FN:117,_ZN10QAtomicIntC1Ei
FNDA:14,_ZN10QAtomicIntC1Ei
DA:21,14
DA:117,14
end_of_record
SF:C:
Users
USER
Documents
UFMG
6
teste
testes_tp
build/C:/Qt/6.6.0/mingw_64/include/QtCore/qbasicatomic.h
FN:38,_ZNK19QBasicAtomicIntegerIiE11loadRelaxedEv
FNDA:2269,_ZNK19QBasicAtomicIntegerIiE11loadRelaxedEv
FN:49,_ZN19QBasicAtomicIntegerIiE3refEv
FNDA:1674,_ZN19QBasicAtomicIntegerIiE3refEv
FN:50,_ZN19QBasicAtomicIntegerIiE5derefEv
FNDA:4267,_ZN19QBasicAtomicIntegerIiE5derefEv
FN:155,_ZN19QBasicAtomicIntegerIiEC2Ei
FNDA:14,_ZN19QBasicAtomicIntegerIiEC2Ei
DA:38,2269
DA:49,1674
DA:50,4267
DA:155,14
end_of_record
SF:C:
Users
USER
Documents
UFMG
6
teste
testes_tp
build/C:/Qt/Tools/mingw1120_64/lib/gcc/x86_64-w64-mingw32/11.2.0/include/c++/new
FN:174,_ZnwyPv
FNDA:863,_ZnwyPv
FN:180,_ZdlPvS_
FNDA:0,_ZdlPvS_
DA:174,863
DA:175,863
DA:180,0
end_of_record
SF:C:
Users
USER
Documents
UFMG
6
teste
testes_tp
build/C:/Qt/6.6.0/mingw_64/include/QtCore/qlogging.h
FN:43,_ZN18QMessageLogContextC1EPKciS1_S1_
FNDA:0,_ZN18QMessageLogContextC1EPKciS1_S1_
FN:72,_ZN14QMessageLoggerC1EPKciS1_
FNDA:0,_ZN14QMessageLoggerC1EPKciS1_
DA:43,0
DA:44,0
DA:72,0
DA:73,0
end_of_record
SF:C:
Users
USER
Documents
UFMG
6
teste
testes_tp
build/C:/Qt/6.6.0/mingw_64/include/QtCore/qlist.h
FN:201,_ZN5QListI7QStringE14const_iteratorC1EPKS0_
FNDA:16,_ZN5QListI7QStringE14const_iteratorC1EPKS0_
FN:204,_ZNK5QListI7QStringE14const_iteratordeEv
FNDA:40,_ZNK5QListI7QStringE14const_iteratordeEv
FN:209,_ZNK5QListI7QStringE14const_iteratorltES2_
FNDA:24,_ZNK5QListI7QStringE14const_iteratorltES2_
FN:221,_ZN5QListI7QStringE14const_iteratorppEv
FNDA:40,_ZN5QListI7QStringE14const_iteratorppEv
FN:225,_ZNK5QListI7QStringE14const_iteratormiES2_
FNDA:8,_ZNK5QListI7QStringE14const_iteratormiES2_
FN:283,_ZN5QListI7QStringEC1ESt16initializer_listIS0_E
FNDA:144,_ZN5QListI7QStringEC1ESt16initializer_listIS0_E
FN:415,_ZNK5QListI7QStringE4dataEv
FNDA:59,_ZNK5QListI7QStringE4dataEv
FN:429,_ZNK5QListI7QStringE2atEx
FNDA:59,_ZNK5QListI7QStringE2atEx
FN:440,_ZNK5QListI7QStringEixEx
FNDA:59,_ZNK5QListI7QStringEixEx
FN:613,_ZNK5QListI7QStringE6cbeginEv
FNDA:8,_ZNK5QListI7QStringE6cbeginEv
FN:614,_ZNK5QListI7QStringE4cendEv
FNDA:8,_ZNK5QListI7QStringE4cendEv
DA:201,16
DA:204,40
DA:209,24
DA:221,40
DA:225,8
DA:283,144
DA:284,144
DA:286,144
DA:287,144
DA:288,144
DA:415,59
DA:429,59
DA:431,59
DA:432,59
DA:440,59
DA:613,8
DA:614,8
end_of_record
SF:C:
Users
USER
Documents
UFMG
6
teste
testes_tp
build/C:/Qt/6.6.0/mingw_64/include/QtCore/qobject.h
FN:133,_ZNK7QObject9findChildIP12QTableWidgetEET_RK7QString6QFlagsIN2Qt15FindChildOptionEE
FNDA:3,_ZNK7QObject9findChildIP12QTableWidgetEET_RK7QString6QFlagsIN2Qt15FindChildOptionEE
FN:133,_ZNK7QObject9findChildIP11QPushButtonEET_RK7QString6QFlagsIN2Qt15FindChildOptionEE
FNDA:6,_ZNK7QObject9findChildIP11QPushButtonEET_RK7QString6QFlagsIN2Qt15FindChildOptionEE
FN:133,_ZNK7QObject9findChildIP9QLineEditEET_RK7QString6QFlagsIN2Qt15FindChildOptionEE
FNDA:24,_ZNK7QObject9findChildIP9QLineEditEET_RK7QString6QFlagsIN2Qt15FindChildOptionEE
FN:198,_ZN7QObject7connectIM15QAbstractButtonFvbEM7QWidgetFvvEEEN11QMetaObject10ConnectionEPKN9QtPrivate15FunctionPointerIT_E6ObjectESB_PKNS9_21ContextTypeForFunctorIT0_vE11ContextTypeEOSH_N2Qt14ConnectionTypeE
FNDA:14,_ZN7QObject7connectIM15QAbstractButtonFvbEM7QWidgetFvvEEEN11QMetaObject10ConnectionEPKN9QtPrivate15FunctionPointerIT_E6ObjectESB_PKNS9_21ContextTypeForFunctorIT0_vE11ContextTypeEOSH_N2Qt14ConnectionTypeE
DA:133,3
DA:136,3
DA:133,6
DA:136,6
DA:133,24
DA:136,24
DA:198,14
DA:225,14
DA:226,14
DA:227,0
DA:229,14
DA:231,14
DA:235,14
end_of_record
SF:C:
Users
USER
Documents
UFMG
6
teste
testes_tp
build/C:/Qt/6.6.0/mingw_64/include/QtCore/qswap.h
FN:43,_Z11qt_ptr_swapIDsEvRPT_S2_
FNDA:186,_Z11qt_ptr_swapIDsEvRPT_S2_
FN:43,_Z11qt_ptr_swapI15QTypedArrayDataIDsEEvRPT_S4_
FNDA:186,_Z11qt_ptr_swapI15QTypedArrayDataIDsEEvRPT_S4_
DA:43,186
DA:45,186
DA:46,186
DA:47,186
DA:48,186
DA:43,186
DA:45,186
DA:46,186
DA:47,186
DA:48,186
end_of_record
SF:C:
Users
USER
Documents
UFMG
6
teste
testes_tp
build/C:/Qt/6.6.0/mingw_64/include/QtCore/qcoreevent.h
DA:355,358
end_of_record
SF:C:
Users
USER
Documents
UFMG
6
teste
testes_tp
build/C:/Qt/6.6.0/mingw_64/include/QtCore/qarraydatapointer.h
FN:31,_ZN17QArrayDataPointerIDsEC1Ev
FNDA:114,_ZN17QArrayDataPointerIDsEC1Ev
FN:37,_ZN17QArrayDataPointerIDsEC1ERKS0_
FNDA:1542,_ZN17QArrayDataPointerIDsEC1ERKS0_
FN:37,_ZN17QArrayDataPointerI7QStringEC1ERKS1_
FNDA:132,_ZN17QArrayDataPointerI7QStringEC1ERKS1_
FN:50,_ZN17QArrayDataPointerI7QStringEC1ESt4pairIP15QTypedArrayDataIS0_EPS0_Ex
FNDA:144,_ZN17QArrayDataPointerI7QStringEC1ESt4pairIP15QTypedArrayDataIS0_EPS0_Ex
FN:85,_ZN17QArrayDataPointerI5QListI7QStringEEptEv
FNDA:1047,_ZN17QArrayDataPointerI5QListI7QStringEEptEv
FN:85,_ZN17QArrayDataPointerIDsEptEv
FNDA:796,_ZN17QArrayDataPointerIDsEptEv
FN:85,_ZN17QArrayDataPointerI7QStringEptEv
FNDA:996,_ZN17QArrayDataPointerI7QStringEptEv
FN:95,_ZNK17QArrayDataPointerI7QStringEptEv
FNDA:380,_ZNK17QArrayDataPointerI7QStringEptEv
FN:95,_ZNK17QArrayDataPointerIDsEptEv
FNDA:173,_ZNK17QArrayDataPointerIDsEptEv
FN:100,_ZN17QArrayDataPointerIDsED1Ev
FNDA:4267,_ZN17QArrayDataPointerIDsED1Ev
FN:100,_ZN17QArrayDataPointerI7QStringED1Ev
FNDA:302,_ZN17QArrayDataPointerI7QStringED1Ev
FN:100,_ZN17QArrayDataPointerI5QListI7QStringEED1Ev
FNDA:101,_ZN17QArrayDataPointerI5QListI7QStringEED1Ev
FN:108,_ZNK17QArrayDataPointerIDsE6isNullEv
FNDA:173,_ZNK17QArrayDataPointerIDsE6isNullEv
FN:113,_ZN17QArrayDataPointerI5QListI7QStringEE4dataEv
FNDA:622,_ZN17QArrayDataPointerI5QListI7QStringEE4dataEv
FN:113,_ZN17QArrayDataPointerI7QStringE4dataEv
FNDA:782,_ZN17QArrayDataPointerI7QStringE4dataEv
FN:114,_ZNK17QArrayDataPointerI7QStringE4dataEv
FNDA:75,_ZNK17QArrayDataPointerI7QStringE4dataEv
FN:114,_ZNK17QArrayDataPointerIDsE4dataEv
FNDA:677,_ZNK17QArrayDataPointerIDsE4dataEv
FN:116,_ZN17QArrayDataPointerI5QListI7QStringEE5beginEv
FNDA:95,_ZN17QArrayDataPointerI5QListI7QStringEE5beginEv
FN:116,_ZN17QArrayDataPointerI7QStringE5beginEv
FNDA:289,_ZN17QArrayDataPointerI7QStringE5beginEv
FN:117,_ZN17QArrayDataPointerI5QListI7QStringEE3endEv
FNDA:74,_ZN17QArrayDataPointerI5QListI7QStringEE3endEv
FN:117,_ZN17QArrayDataPointerI7QStringE3endEv
FNDA:222,_ZN17QArrayDataPointerI7QStringE3endEv
FN:120,_ZNK17QArrayDataPointerI7QStringE10constBeginEv
FNDA:8,_ZNK17QArrayDataPointerI7QStringE10constBeginEv
FN:121,_ZNK17QArrayDataPointerI7QStringE8constEndEv
FNDA:8,_ZNK17QArrayDataPointerI7QStringE8constEndEv
FN:123,_ZN17QArrayDataPointerIDsE4swapERS0_
FNDA:186,_ZN17QArrayDataPointerIDsE4swapERS0_
FN:412,_ZN17QArrayDataPointerIDsE3refEv
FNDA:1542,_ZN17QArrayDataPointerIDsE3refEv
FN:412,_ZN17QArrayDataPointerI7QStringE3refEv
FNDA:132,_ZN17QArrayDataPointerI7QStringE3refEv
FN:413,_ZN17QArrayDataPointerIDsE5derefEv
FNDA:4267,_ZN17QArrayDataPointerIDsE5derefEv
FN:413,_ZN17QArrayDataPointerI7QStringE5derefEv
FNDA:302,_ZN17QArrayDataPointerI7QStringE5derefEv
FN:413,_ZN17QArrayDataPointerI5QListI7QStringEE5derefEv
FNDA:101,_ZN17QArrayDataPointerI5QListI7QStringEE5derefEv
FN:414,_ZNK17QArrayDataPointerI7QStringE9isMutableEv
FNDA:144,_ZNK17QArrayDataPointerI7QStringE9isMutableEv
FN:415,_ZNK17QArrayDataPointerI7QStringE8isSharedEv
FNDA:144,_ZNK17QArrayDataPointerI7QStringE8isSharedEv
FN:426,_ZNK17QArrayDataPointerI7QStringE16freeSpaceAtBeginEv
FNDA:320,_ZNK17QArrayDataPointerI7QStringE16freeSpaceAtBeginEv
FN:433,_ZNK17QArrayDataPointerI7QStringE14freeSpaceAtEndEv
FNDA:298,_ZNK17QArrayDataPointerI7QStringE14freeSpaceAtEndEv
DA:31,114
DA:32,114
DA:34,114
DA:37,132
DA:38,132
DA:40,132
DA:41,132
DA:37,1542
DA:38,1542
DA:40,1542
DA:41,1542
DA:50,144
DA:51,144
DA:53,144
DA:85,1047
DA:87,1047
DA:85,996
DA:87,996
DA:85,796
DA:87,796
DA:95,380
DA:97,380
DA:95,173
DA:97,173
DA:100,101
DA:102,101
DA:103,41
DA:104,41
DA:106,101
DA:100,302
DA:102,302
DA:103,145
DA:104,145
DA:106,302
DA:100,4267
DA:102,4267
DA:103,796
DA:104,796
DA:106,4267
DA:108,173
DA:110,173
DA:113,622
DA:113,782
DA:114,75
DA:114,677
DA:116,95
DA:116,289
DA:117,74
DA:117,222
DA:120,8
DA:121,8
DA:123,186
DA:125,186
DA:126,186
DA:127,186
DA:128,186
DA:412,132
DA:412,1542
DA:413,101
DA:413,302
DA:413,4267
DA:414,144
DA:415,144
DA:426,320
DA:428,320
DA:429,11
DA:430,309
DA:433,298
DA:435,298
DA:436,11
DA:437,287
end_of_record
SF:C:
Users
USER
Documents
UFMG
6
teste
testes_tp
build/C:/Qt/6.6.0/mingw_64/include/QtCore/qscopedpointer.h
FN:90,_ZNK14QScopedPointerI11QObjectData21QScopedPointerDeleterIS0_EEptEv
FNDA:4764,_ZNK14QScopedPointerI11QObjectData21QScopedPointerDeleterIS0_EEptEv
DA:90,4764
DA:92,4764
end_of_record
SF:C:
Users
USER
Documents
UFMG
6
teste
testes_tp
build/C:/Qt/6.6.0/mingw_64/include/QtTest/qtestcase.h
FN:494,_ZN5QTest8qCompareERK7QStringS2_PKcS4_S4_i
FNDA:37,_ZN5QTest8qCompareERK7QStringS2_PKcS4_S4_i
FN:586,_ZN5QTest8qCompareI7QStringA18_cEEbRKT_RKT0_PKcSA_SA_i
FNDA:1,_ZN5QTest8qCompareI7QStringA18_cEEbRKT_RKT0_PKcSA_SA_i
FN:586,_ZN5QTest8qCompareI7QStringA3_cEEbRKT_RKT0_PKcSA_SA_i
FNDA:2,_ZN5QTest8qCompareI7QStringA3_cEEbRKT_RKT0_PKcSA_SA_i
FN:586,_ZN5QTest8qCompareI7QStringA6_cEEbRKT_RKT0_PKcSA_SA_i
FNDA:1,_ZN5QTest8qCompareI7QStringA6_cEEbRKT_RKT0_PKcSA_SA_i
FN:586,_ZN5QTest8qCompareI7QStringA14_cEEbRKT_RKT0_PKcSA_SA_i
FNDA:1,_ZN5QTest8qCompareI7QStringA14_cEEbRKT_RKT0_PKcSA_SA_i
FN:586,_ZN5QTest8qCompareI7QStringA12_cEEbRKT_RKT0_PKcSA_SA_i
FNDA:2,_ZN5QTest8qCompareI7QStringA12_cEEbRKT_RKT0_PKcSA_SA_i
FN:586,_ZN5QTest8qCompareI7QStringA10_cEEbRKT_RKT0_PKcSA_SA_i
FNDA:2,_ZN5QTest8qCompareI7QStringA10_cEEbRKT_RKT0_PKcSA_SA_i
FN:586,_ZN5QTest8qCompareI7QStringA13_cEEbRKT_RKT0_PKcSA_SA_i
FNDA:1,_ZN5QTest8qCompareI7QStringA13_cEEbRKT_RKT0_PKcSA_SA_i
FN:586,_ZN5QTest8qCompareI7QStringA8_cEEbRKT_RKT0_PKcSA_SA_i
FNDA:1,_ZN5QTest8qCompareI7QStringA8_cEEbRKT_RKT0_PKcSA_SA_i
FN:586,_ZN5QTest8qCompareI7QStringA7_cEEbRKT_RKT0_PKcSA_SA_i
FNDA:1,_ZN5QTest8qCompareI7QStringA7_cEEbRKT_RKT0_PKcSA_SA_i
FN:586,_ZN5QTest8qCompareIbbEEbRKT_RKT0_PKcS8_S8_i
FNDA:4,_ZN5QTest8qCompareIbbEEbRKT_RKT0_PKcS8_S8_i
FN:590,_ZZN5QTest8qCompareI7QStringA7_cEEbRKT_RKT0_PKcSA_SA_iENKUlvE_clEv
FNDA:0,_ZZN5QTest8qCompareI7QStringA7_cEEbRKT_RKT0_PKcSA_SA_iENKUlvE_clEv
FN:590,_ZZN5QTest8qCompareI7QStringA8_cEEbRKT_RKT0_PKcSA_SA_iENKUlvE_clEv
FNDA:0,_ZZN5QTest8qCompareI7QStringA8_cEEbRKT_RKT0_PKcSA_SA_iENKUlvE_clEv
FN:590,_ZZN5QTest8qCompareI7QStringA3_cEEbRKT_RKT0_PKcSA_SA_iENKUlvE_clEv
FNDA:0,_ZZN5QTest8qCompareI7QStringA3_cEEbRKT_RKT0_PKcSA_SA_iENKUlvE_clEv
FN:590,_ZZN5QTest8qCompareI7QStringA13_cEEbRKT_RKT0_PKcSA_SA_iENKUlvE_clEv
FNDA:0,_ZZN5QTest8qCompareI7QStringA13_cEEbRKT_RKT0_PKcSA_SA_iENKUlvE_clEv
FN:590,_ZZN5QTest8qCompareI7QStringA10_cEEbRKT_RKT0_PKcSA_SA_iENKUlvE_clEv
FNDA:0,_ZZN5QTest8qCompareI7QStringA10_cEEbRKT_RKT0_PKcSA_SA_iENKUlvE_clEv
FN:590,_ZZN5QTest8qCompareI7QStringA18_cEEbRKT_RKT0_PKcSA_SA_iENKUlvE_clEv
FNDA:0,_ZZN5QTest8qCompareI7QStringA18_cEEbRKT_RKT0_PKcSA_SA_iENKUlvE_clEv
FN:590,_ZZN5QTest8qCompareIbbEEbRKT_RKT0_PKcS8_S8_iENKUlvE_clEv
FNDA:0,_ZZN5QTest8qCompareIbbEEbRKT_RKT0_PKcS8_S8_iENKUlvE_clEv
FN:590,_ZZN5QTest8qCompareI7QStringA6_cEEbRKT_RKT0_PKcSA_SA_iENKUlvE_clEv
FNDA:0,_ZZN5QTest8qCompareI7QStringA6_cEEbRKT_RKT0_PKcSA_SA_iENKUlvE_clEv
FN:590,_ZZN5QTest8qCompareI7QStringA12_cEEbRKT_RKT0_PKcSA_SA_iENKUlvE_clEv
FNDA:0,_ZZN5QTest8qCompareI7QStringA12_cEEbRKT_RKT0_PKcSA_SA_iENKUlvE_clEv
FN:590,_ZZN5QTest8qCompareI7QStringA14_cEEbRKT_RKT0_PKcSA_SA_iENKUlvE_clEv
FNDA:0,_ZZN5QTest8qCompareI7QStringA14_cEEbRKT_RKT0_PKcSA_SA_iENKUlvE_clEv
FN:590,_ZZN5QTest8qCompareI7QStringA10_cEEbRKT_RKT0_PKcSA_SA_iENKUlvE0_clEv
FNDA:0,_ZZN5QTest8qCompareI7QStringA10_cEEbRKT_RKT0_PKcSA_SA_iENKUlvE0_clEv
FN:590,_ZZN5QTest8qCompareI7QStringA3_cEEbRKT_RKT0_PKcSA_SA_iENKUlvE0_clEv
FNDA:0,_ZZN5QTest8qCompareI7QStringA3_cEEbRKT_RKT0_PKcSA_SA_iENKUlvE0_clEv
FN:590,_ZZN5QTest8qCompareI7QStringA6_cEEbRKT_RKT0_PKcSA_SA_iENKUlvE0_clEv
FNDA:0,_ZZN5QTest8qCompareI7QStringA6_cEEbRKT_RKT0_PKcSA_SA_iENKUlvE0_clEv
FN:590,_ZZN5QTest8qCompareI7QStringA14_cEEbRKT_RKT0_PKcSA_SA_iENKUlvE0_clEv
FNDA:0,_ZZN5QTest8qCompareI7QStringA14_cEEbRKT_RKT0_PKcSA_SA_iENKUlvE0_clEv
FN:590,_ZZN5QTest8qCompareIbbEEbRKT_RKT0_PKcS8_S8_iENKUlvE0_clEv
FNDA:0,_ZZN5QTest8qCompareIbbEEbRKT_RKT0_PKcS8_S8_iENKUlvE0_clEv
FN:590,_ZZN5QTest8qCompareI7QStringA12_cEEbRKT_RKT0_PKcSA_SA_iENKUlvE0_clEv
FNDA:0,_ZZN5QTest8qCompareI7QStringA12_cEEbRKT_RKT0_PKcSA_SA_iENKUlvE0_clEv
FN:590,_ZZN5QTest8qCompareI7QStringA18_cEEbRKT_RKT0_PKcSA_SA_iENKUlvE0_clEv
FNDA:0,_ZZN5QTest8qCompareI7QStringA18_cEEbRKT_RKT0_PKcSA_SA_iENKUlvE0_clEv
FN:590,_ZZN5QTest8qCompareI7QStringA13_cEEbRKT_RKT0_PKcSA_SA_iENKUlvE0_clEv
FNDA:0,_ZZN5QTest8qCompareI7QStringA13_cEEbRKT_RKT0_PKcSA_SA_iENKUlvE0_clEv
FN:590,_ZZN5QTest8qCompareI7QStringA7_cEEbRKT_RKT0_PKcSA_SA_iENKUlvE0_clEv
FNDA:0,_ZZN5QTest8qCompareI7QStringA7_cEEbRKT_RKT0_PKcSA_SA_iENKUlvE0_clEv
FN:590,_ZZN5QTest8qCompareI7QStringA8_cEEbRKT_RKT0_PKcSA_SA_iENKUlvE0_clEv
FNDA:0,_ZZN5QTest8qCompareI7QStringA8_cEEbRKT_RKT0_PKcSA_SA_iENKUlvE0_clEv
DA:494,37
DA:498,37
DA:586,2
DA:589,4
DA:591,4
DA:586,4
DA:589,8
DA:591,8
DA:586,1
DA:589,2
DA:591,2
DA:586,1
DA:589,2
DA:591,2
DA:586,1
DA:589,2
DA:591,2
DA:586,1
DA:589,2
DA:591,2
DA:586,2
DA:589,4
DA:591,4
DA:586,1
DA:589,2
DA:591,2
DA:586,1
DA:589,2
DA:591,2
DA:586,2
DA:589,4
DA:591,4
DA:590,0
DA:590,0
DA:590,0
DA:590,0
DA:590,0
DA:590,0
DA:590,0
DA:590,0
DA:590,0
DA:590,0
DA:590,0
DA:590,0
DA:590,0
DA:590,0
DA:590,0
DA:590,0
DA:590,0
DA:590,0
DA:590,0
DA:590,0
end_of_record
SF:C:
Users
USER
Documents
UFMG
6
teste
testes_tp
build/C:/Qt/Tools/mingw1120_64/lib/gcc/x86_64-w64-mingw32/11.2.0/include/c++/bits/move.h
FN:49,_ZSt11__addressofIZN5QTest8qCompareI7QStringA18_cEEbRKT_RKT0_PKcSB_SB_iEUlvE0_EPS4_RS4_
FNDA:1,_ZSt11__addressofIZN5QTest8qCompareI7QStringA18_cEEbRKT_RKT0_PKcSB_SB_iEUlvE0_EPS4_RS4_
FN:49,_ZSt11__addressofIZN5QTest8qCompareI7QStringA10_cEEbRKT_RKT0_PKcSB_SB_iEUlvE0_EPS4_RS4_
FNDA:2,_ZSt11__addressofIZN5QTest8qCompareI7QStringA10_cEEbRKT_RKT0_PKcSB_SB_iEUlvE0_EPS4_RS4_
FN:49,_ZSt11__addressofIZN5QTest8qCompareI7QStringA10_cEEbRKT_RKT0_PKcSB_SB_iEUlvE_EPS4_RS4_
FNDA:2,_ZSt11__addressofIZN5QTest8qCompareI7QStringA10_cEEbRKT_RKT0_PKcSB_SB_iEUlvE_EPS4_RS4_
FN:49,_ZSt11__addressofIZN5QTest8qCompareIbbEEbRKT_RKT0_PKcS9_S9_iEUlvE0_EPS2_RS2_
FNDA:4,_ZSt11__addressofIZN5QTest8qCompareIbbEEbRKT_RKT0_PKcS9_S9_iEUlvE0_EPS2_RS2_
FN:49,_ZSt11__addressofIZN5QTest8qCompareIbbEEbRKT_RKT0_PKcS9_S9_iEUlvE_EPS2_RS2_
FNDA:4,_ZSt11__addressofIZN5QTest8qCompareIbbEEbRKT_RKT0_PKcS9_S9_iEUlvE_EPS2_RS2_
FN:49,_ZSt11__addressofIZN5QTest8qCompareI7QStringA7_cEEbRKT_RKT0_PKcSB_SB_iEUlvE0_EPS4_RS4_
FNDA:1,_ZSt11__addressofIZN5QTest8qCompareI7QStringA7_cEEbRKT_RKT0_PKcSB_SB_iEUlvE0_EPS4_RS4_
FN:49,_ZSt11__addressofIZN5QTest8qCompareI7QStringA7_cEEbRKT_RKT0_PKcSB_SB_iEUlvE_EPS4_RS4_
FNDA:1,_ZSt11__addressofIZN5QTest8qCompareI7QStringA7_cEEbRKT_RKT0_PKcSB_SB_iEUlvE_EPS4_RS4_
FN:49,_ZSt11__addressofIZN5QTest8qCompareI7QStringA8_cEEbRKT_RKT0_PKcSB_SB_iEUlvE0_EPS4_RS4_
FNDA:1,_ZSt11__addressofIZN5QTest8qCompareI7QStringA8_cEEbRKT_RKT0_PKcSB_SB_iEUlvE0_EPS4_RS4_
FN:49,_ZSt11__addressofIZN5QTest8qCompareI7QStringA8_cEEbRKT_RKT0_PKcSB_SB_iEUlvE_EPS4_RS4_
FNDA:1,_ZSt11__addressofIZN5QTest8qCompareI7QStringA8_cEEbRKT_RKT0_PKcSB_SB_iEUlvE_EPS4_RS4_
FN:49,_ZSt11__addressofIZN5QTest8qCompareI7QStringA13_cEEbRKT_RKT0_PKcSB_SB_iEUlvE0_EPS4_RS4_
FNDA:1,_ZSt11__addressofIZN5QTest8qCompareI7QStringA13_cEEbRKT_RKT0_PKcSB_SB_iEUlvE0_EPS4_RS4_
FN:49,_ZSt11__addressofIZN5QTest8qCompareI7QStringA13_cEEbRKT_RKT0_PKcSB_SB_iEUlvE_EPS4_RS4_
FNDA:1,_ZSt11__addressofIZN5QTest8qCompareI7QStringA13_cEEbRKT_RKT0_PKcSB_SB_iEUlvE_EPS4_RS4_
FN:49,_ZSt11__addressofI7QStringEPT_RS1_
FNDA:725,_ZSt11__addressofI7QStringEPT_RS1_
FN:49,_ZSt11__addressofIZN5QTest8qCompareI7QStringA18_cEEbRKT_RKT0_PKcSB_SB_iEUlvE_EPS4_RS4_
FNDA:1,_ZSt11__addressofIZN5QTest8qCompareI7QStringA18_cEEbRKT_RKT0_PKcSB_SB_iEUlvE_EPS4_RS4_
FN:49,_ZSt11__addressofIZN5QTest8qCompareI7QStringA12_cEEbRKT_RKT0_PKcSB_SB_iEUlvE0_EPS4_RS4_
FNDA:2,_ZSt11__addressofIZN5QTest8qCompareI7QStringA12_cEEbRKT_RKT0_PKcSB_SB_iEUlvE0_EPS4_RS4_
FN:49,_ZSt11__addressofIZN5QTest8qCompareI7QStringA12_cEEbRKT_RKT0_PKcSB_SB_iEUlvE_EPS4_RS4_
FNDA:2,_ZSt11__addressofIZN5QTest8qCompareI7QStringA12_cEEbRKT_RKT0_PKcSB_SB_iEUlvE_EPS4_RS4_
FN:49,_ZSt11__addressofIZN5QTest8qCompareI7QStringA14_cEEbRKT_RKT0_PKcSB_SB_iEUlvE0_EPS4_RS4_
FNDA:1,_ZSt11__addressofIZN5QTest8qCompareI7QStringA14_cEEbRKT_RKT0_PKcSB_SB_iEUlvE0_EPS4_RS4_
FN:49,_ZSt11__addressofIZN5QTest8qCompareI7QStringA14_cEEbRKT_RKT0_PKcSB_SB_iEUlvE_EPS4_RS4_
FNDA:1,_ZSt11__addressofIZN5QTest8qCompareI7QStringA14_cEEbRKT_RKT0_PKcSB_SB_iEUlvE_EPS4_RS4_
FN:49,_ZSt11__addressofIZN5QTest8qCompareI7QStringA6_cEEbRKT_RKT0_PKcSB_SB_iEUlvE0_EPS4_RS4_
FNDA:1,_ZSt11__addressofIZN5QTest8qCompareI7QStringA6_cEEbRKT_RKT0_PKcSB_SB_iEUlvE0_EPS4_RS4_
FN:49,_ZSt11__addressofIZN5QTest8qCompareI7QStringA6_cEEbRKT_RKT0_PKcSB_SB_iEUlvE_EPS4_RS4_
FNDA:1,_ZSt11__addressofIZN5QTest8qCompareI7QStringA6_cEEbRKT_RKT0_PKcSB_SB_iEUlvE_EPS4_RS4_
FN:49,_ZSt11__addressofIZN5QTest8qCompareI7QStringA3_cEEbRKT_RKT0_PKcSB_SB_iEUlvE0_EPS4_RS4_
FNDA:2,_ZSt11__addressofIZN5QTest8qCompareI7QStringA3_cEEbRKT_RKT0_PKcSB_SB_iEUlvE0_EPS4_RS4_
FN:49,_ZSt11__addressofIZN5QTest8qCompareI7QStringA3_cEEbRKT_RKT0_PKcSB_SB_iEUlvE_EPS4_RS4_
FNDA:2,_ZSt11__addressofIZN5QTest8qCompareI7QStringA3_cEEbRKT_RKT0_PKcSB_SB_iEUlvE_EPS4_RS4_
FN:49,_ZSt11__addressofI5QListI7QStringEEPT_RS3_
FNDA:128,_ZSt11__addressofI5QListI7QStringEEPT_RS3_
FN:77,_ZSt7forwardIRZN5QTest8qCompareI7QStringA13_cEEbRKT_RKT0_PKcSB_SB_iEUlvE_EOS4_RNSt16remove_referenceIS4_E4typeE
FNDA:0,_ZSt7forwardIRZN5QTest8qCompareI7QStringA13_cEEbRKT_RKT0_PKcSB_SB_iEUlvE_EOS4_RNSt16remove_referenceIS4_E4typeE
FN:77,_ZSt7forwardIM7QWidgetFvvEEOT_RNSt16remove_referenceIS3_E4typeE
FNDA:28,_ZSt7forwardIM7QWidgetFvvEEOT_RNSt16remove_referenceIS3_E4typeE
FN:77,_ZSt7forwardIRZN5QTest8qCompareI7QStringA3_cEEbRKT_RKT0_PKcSB_SB_iEUlvE_EOS4_RNSt16remove_referenceIS4_E4typeE
FNDA:0,_ZSt7forwardIRZN5QTest8qCompareI7QStringA3_cEEbRKT_RKT0_PKcSB_SB_iEUlvE_EOS4_RNSt16remove_referenceIS4_E4typeE
FN:77,_ZSt7forwardIRZN5QTest8qCompareI7QStringA10_cEEbRKT_RKT0_PKcSB_SB_iEUlvE0_EOS4_RNSt16remove_referenceIS4_E4typeE
FNDA:0,_ZSt7forwardIRZN5QTest8qCompareI7QStringA10_cEEbRKT_RKT0_PKcSB_SB_iEUlvE0_EOS4_RNSt16remove_referenceIS4_E4typeE
FN:77,_ZSt7forwardIRZN5QTest8qCompareI7QStringA10_cEEbRKT_RKT0_PKcSB_SB_iEUlvE_EOS4_RNSt16remove_referenceIS4_E4typeE
FNDA:0,_ZSt7forwardIRZN5QTest8qCompareI7QStringA10_cEEbRKT_RKT0_PKcSB_SB_iEUlvE_EOS4_RNSt16remove_referenceIS4_E4typeE
FN:77,_ZSt7forwardIRZN5QTest8qCompareIbbEEbRKT_RKT0_PKcS9_S9_iEUlvE0_EOS2_RNSt16remove_referenceIS2_E4typeE
FNDA:0,_ZSt7forwardIRZN5QTest8qCompareIbbEEbRKT_RKT0_PKcS9_S9_iEUlvE0_EOS2_RNSt16remove_referenceIS2_E4typeE
FN:77,_ZSt7forwardIRZN5QTest8qCompareIbbEEbRKT_RKT0_PKcS9_S9_iEUlvE_EOS2_RNSt16remove_referenceIS2_E4typeE
FNDA:0,_ZSt7forwardIRZN5QTest8qCompareIbbEEbRKT_RKT0_PKcS9_S9_iEUlvE_EOS2_RNSt16remove_referenceIS2_E4typeE
FN:77,_ZSt7forwardIRZN5QTest8qCompareI7QStringA7_cEEbRKT_RKT0_PKcSB_SB_iEUlvE0_EOS4_RNSt16remove_referenceIS4_E4typeE
FNDA:0,_ZSt7forwardIRZN5QTest8qCompareI7QStringA7_cEEbRKT_RKT0_PKcSB_SB_iEUlvE0_EOS4_RNSt16remove_referenceIS4_E4typeE
FN:77,_ZSt7forwardIRZN5QTest8qCompareI7QStringA7_cEEbRKT_RKT0_PKcSB_SB_iEUlvE_EOS4_RNSt16remove_referenceIS4_E4typeE
FNDA:0,_ZSt7forwardIRZN5QTest8qCompareI7QStringA7_cEEbRKT_RKT0_PKcSB_SB_iEUlvE_EOS4_RNSt16remove_referenceIS4_E4typeE
FN:77,_ZSt7forwardIRZN5QTest8qCompareI7QStringA8_cEEbRKT_RKT0_PKcSB_SB_iEUlvE0_EOS4_RNSt16remove_referenceIS4_E4typeE
FNDA:0,_ZSt7forwardIRZN5QTest8qCompareI7QStringA8_cEEbRKT_RKT0_PKcSB_SB_iEUlvE0_EOS4_RNSt16remove_referenceIS4_E4typeE
FN:77,_ZSt7forwardIRZN5QTest8qCompareI7QStringA8_cEEbRKT_RKT0_PKcSB_SB_iEUlvE_EOS4_RNSt16remove_referenceIS4_E4typeE
FNDA:0,_ZSt7forwardIRZN5QTest8qCompareI7QStringA8_cEEbRKT_RKT0_PKcSB_SB_iEUlvE_EOS4_RNSt16remove_referenceIS4_E4typeE
FN:77,_ZSt7forwardIRZN5QTest8qCompareI7QStringA13_cEEbRKT_RKT0_PKcSB_SB_iEUlvE0_EOS4_RNSt16remove_referenceIS4_E4typeE
FNDA:0,_ZSt7forwardIRZN5QTest8qCompareI7QStringA13_cEEbRKT_RKT0_PKcSB_SB_iEUlvE0_EOS4_RNSt16remove_referenceIS4_E4typeE
FN:77,_ZSt7forwardIRZN5QTest8qCompareI7QStringA18_cEEbRKT_RKT0_PKcSB_SB_iEUlvE0_EOS4_RNSt16remove_referenceIS4_E4typeE
FNDA:0,_ZSt7forwardIRZN5QTest8qCompareI7QStringA18_cEEbRKT_RKT0_PKcSB_SB_iEUlvE0_EOS4_RNSt16remove_referenceIS4_E4typeE
FN:77,_ZSt7forwardIRZN5QTest8qCompareI7QStringA18_cEEbRKT_RKT0_PKcSB_SB_iEUlvE_EOS4_RNSt16remove_referenceIS4_E4typeE
FNDA:0,_ZSt7forwardIRZN5QTest8qCompareI7QStringA18_cEEbRKT_RKT0_PKcSB_SB_iEUlvE_EOS4_RNSt16remove_referenceIS4_E4typeE
FN:77,_ZSt7forwardIRZN5QTest8qCompareI7QStringA12_cEEbRKT_RKT0_PKcSB_SB_iEUlvE0_EOS4_RNSt16remove_referenceIS4_E4typeE
FNDA:0,_ZSt7forwardIRZN5QTest8qCompareI7QStringA12_cEEbRKT_RKT0_PKcSB_SB_iEUlvE0_EOS4_RNSt16remove_referenceIS4_E4typeE
FN:77,_ZSt7forwardIRZN5QTest8qCompareI7QStringA12_cEEbRKT_RKT0_PKcSB_SB_iEUlvE_EOS4_RNSt16remove_referenceIS4_E4typeE
FNDA:0,_ZSt7forwardIRZN5QTest8qCompareI7QStringA12_cEEbRKT_RKT0_PKcSB_SB_iEUlvE_EOS4_RNSt16remove_referenceIS4_E4typeE
FN:77,_ZSt7forwardIRZN5QTest8qCompareI7QStringA14_cEEbRKT_RKT0_PKcSB_SB_iEUlvE0_EOS4_RNSt16remove_referenceIS4_E4typeE
FNDA:0,_ZSt7forwardIRZN5QTest8qCompareI7QStringA14_cEEbRKT_RKT0_PKcSB_SB_iEUlvE0_EOS4_RNSt16remove_referenceIS4_E4typeE
FN:77,_ZSt7forwardIP15QTypedArrayDataI7QStringEEOT_RNSt16remove_referenceIS4_E4typeE
FNDA:542,_ZSt7forwardIP15QTypedArrayDataI7QStringEEOT_RNSt16remove_referenceIS4_E4typeE
FN:77,_ZSt7forwardIP7QStringEOT_RNSt16remove_referenceIS2_E4typeE
FNDA:542,_ZSt7forwardIP7QStringEOT_RNSt16remove_referenceIS2_E4typeE
FN:77,_ZSt7forwardIRZN5QTest8qCompareI7QStringA14_cEEbRKT_RKT0_PKcSB_SB_iEUlvE_EOS4_RNSt16remove_referenceIS4_E4typeE
FNDA:0,_ZSt7forwardIRZN5QTest8qCompareI7QStringA14_cEEbRKT_RKT0_PKcSB_SB_iEUlvE_EOS4_RNSt16remove_referenceIS4_E4typeE
FN:77,_ZSt7forwardIRZN5QTest8qCompareI7QStringA6_cEEbRKT_RKT0_PKcSB_SB_iEUlvE0_EOS4_RNSt16remove_referenceIS4_E4typeE
FNDA:0,_ZSt7forwardIRZN5QTest8qCompareI7QStringA6_cEEbRKT_RKT0_PKcSB_SB_iEUlvE0_EOS4_RNSt16remove_referenceIS4_E4typeE
FN:77,_ZSt7forwardIRZN5QTest8qCompareI7QStringA6_cEEbRKT_RKT0_PKcSB_SB_iEUlvE_EOS4_RNSt16remove_referenceIS4_E4typeE
FNDA:0,_ZSt7forwardIRZN5QTest8qCompareI7QStringA6_cEEbRKT_RKT0_PKcSB_SB_iEUlvE_EOS4_RNSt16remove_referenceIS4_E4typeE
FN:77,_ZSt7forwardIRZN5QTest8qCompareI7QStringA3_cEEbRKT_RKT0_PKcSB_SB_iEUlvE0_EOS4_RNSt16remove_referenceIS4_E4typeE
FNDA:0,_ZSt7forwardIRZN5QTest8qCompareI7QStringA3_cEEbRKT_RKT0_PKcSB_SB_iEUlvE0_EOS4_RNSt16remove_referenceIS4_E4typeE
FN:104,_ZSt4moveIRxEONSt16remove_referenceIT_E4typeEOS2_
FNDA:684,_ZSt4moveIRxEONSt16remove_referenceIT_E4typeEOS2_
FN:104,_ZSt4moveIRM7QWidgetFvvEEONSt16remove_referenceIT_E4typeEOS5_
FNDA:14,_ZSt4moveIRM7QWidgetFvvEEONSt16remove_referenceIT_E4typeEOS5_
FN:145,_ZSt9addressofIZN5QTest8qCompareI7QStringA12_cEEbRKT_RKT0_PKcSB_SB_iEUlvE0_EPS4_RS4_
FNDA:2,_ZSt9addressofIZN5QTest8qCompareI7QStringA12_cEEbRKT_RKT0_PKcSB_SB_iEUlvE0_EPS4_RS4_
FN:145,_ZSt9addressofIZN5QTest8qCompareI7QStringA10_cEEbRKT_RKT0_PKcSB_SB_iEUlvE0_EPS4_RS4_
FNDA:2,_ZSt9addressofIZN5QTest8qCompareI7QStringA10_cEEbRKT_RKT0_PKcSB_SB_iEUlvE0_EPS4_RS4_
FN:145,_ZSt9addressofIZN5QTest8qCompareI7QStringA3_cEEbRKT_RKT0_PKcSB_SB_iEUlvE_EPS4_RS4_
FNDA:2,_ZSt9addressofIZN5QTest8qCompareI7QStringA3_cEEbRKT_RKT0_PKcSB_SB_iEUlvE_EPS4_RS4_
FN:145,_ZSt9addressofIZN5QTest8qCompareI7QStringA3_cEEbRKT_RKT0_PKcSB_SB_iEUlvE0_EPS4_RS4_
FNDA:2,_ZSt9addressofIZN5QTest8qCompareI7QStringA3_cEEbRKT_RKT0_PKcSB_SB_iEUlvE0_EPS4_RS4_
FN:145,_ZSt9addressofIZN5QTest8qCompareI7QStringA6_cEEbRKT_RKT0_PKcSB_SB_iEUlvE_EPS4_RS4_
FNDA:1,_ZSt9addressofIZN5QTest8qCompareI7QStringA6_cEEbRKT_RKT0_PKcSB_SB_iEUlvE_EPS4_RS4_
FN:145,_ZSt9addressofIZN5QTest8qCompareI7QStringA6_cEEbRKT_RKT0_PKcSB_SB_iEUlvE0_EPS4_RS4_
FNDA:1,_ZSt9addressofIZN5QTest8qCompareI7QStringA6_cEEbRKT_RKT0_PKcSB_SB_iEUlvE0_EPS4_RS4_
FN:145,_ZSt9addressofIZN5QTest8qCompareI7QStringA14_cEEbRKT_RKT0_PKcSB_SB_iEUlvE_EPS4_RS4_
FNDA:1,_ZSt9addressofIZN5QTest8qCompareI7QStringA14_cEEbRKT_RKT0_PKcSB_SB_iEUlvE_EPS4_RS4_
FN:145,_ZSt9addressofIZN5QTest8qCompareI7QStringA14_cEEbRKT_RKT0_PKcSB_SB_iEUlvE0_EPS4_RS4_
FNDA:1,_ZSt9addressofIZN5QTest8qCompareI7QStringA14_cEEbRKT_RKT0_PKcSB_SB_iEUlvE0_EPS4_RS4_
FN:145,_ZSt9addressofIZN5QTest8qCompareI7QStringA12_cEEbRKT_RKT0_PKcSB_SB_iEUlvE_EPS4_RS4_
FNDA:2,_ZSt9addressofIZN5QTest8qCompareI7QStringA12_cEEbRKT_RKT0_PKcSB_SB_iEUlvE_EPS4_RS4_
FN:145,_ZSt9addressofIZN5QTest8qCompareI7QStringA10_cEEbRKT_RKT0_PKcSB_SB_iEUlvE_EPS4_RS4_
FNDA:2,_ZSt9addressofIZN5QTest8qCompareI7QStringA10_cEEbRKT_RKT0_PKcSB_SB_iEUlvE_EPS4_RS4_
FN:145,_ZSt9addressofIZN5QTest8qCompareI7QStringA18_cEEbRKT_RKT0_PKcSB_SB_iEUlvE_EPS4_RS4_
FNDA:1,_ZSt9addressofIZN5QTest8qCompareI7QStringA18_cEEbRKT_RKT0_PKcSB_SB_iEUlvE_EPS4_RS4_
FN:145,_ZSt9addressofIZN5QTest8qCompareI7QStringA18_cEEbRKT_RKT0_PKcSB_SB_iEUlvE0_EPS4_RS4_
FNDA:1,_ZSt9addressofIZN5QTest8qCompareI7QStringA18_cEEbRKT_RKT0_PKcSB_SB_iEUlvE0_EPS4_RS4_
FN:145,_ZSt9addressofIZN5QTest8qCompareI7QStringA13_cEEbRKT_RKT0_PKcSB_SB_iEUlvE_EPS4_RS4_
FNDA:1,_ZSt9addressofIZN5QTest8qCompareI7QStringA13_cEEbRKT_RKT0_PKcSB_SB_iEUlvE_EPS4_RS4_
FN:145,_ZSt9addressofIZN5QTest8qCompareI7QStringA13_cEEbRKT_RKT0_PKcSB_SB_iEUlvE0_EPS4_RS4_
FNDA:1,_ZSt9addressofIZN5QTest8qCompareI7QStringA13_cEEbRKT_RKT0_PKcSB_SB_iEUlvE0_EPS4_RS4_
FN:145,_ZSt9addressofIZN5QTest8qCompareI7QStringA8_cEEbRKT_RKT0_PKcSB_SB_iEUlvE_EPS4_RS4_
FNDA:1,_ZSt9addressofIZN5QTest8qCompareI7QStringA8_cEEbRKT_RKT0_PKcSB_SB_iEUlvE_EPS4_RS4_
FN:145,_ZSt9addressofIZN5QTest8qCompareI7QStringA8_cEEbRKT_RKT0_PKcSB_SB_iEUlvE0_EPS4_RS4_
FNDA:1,_ZSt9addressofIZN5QTest8qCompareI7QStringA8_cEEbRKT_RKT0_PKcSB_SB_iEUlvE0_EPS4_RS4_
FN:145,_ZSt9addressofIZN5QTest8qCompareI7QStringA7_cEEbRKT_RKT0_PKcSB_SB_iEUlvE_EPS4_RS4_
FNDA:1,_ZSt9addressofIZN5QTest8qCompareI7QStringA7_cEEbRKT_RKT0_PKcSB_SB_iEUlvE_EPS4_RS4_
FN:145,_ZSt9addressofIZN5QTest8qCompareI7QStringA7_cEEbRKT_RKT0_PKcSB_SB_iEUlvE0_EPS4_RS4_
FNDA:1,_ZSt9addressofIZN5QTest8qCompareI7QStringA7_cEEbRKT_RKT0_PKcSB_SB_iEUlvE0_EPS4_RS4_
FN:145,_ZSt9addressofIZN5QTest8qCompareIbbEEbRKT_RKT0_PKcS9_S9_iEUlvE_EPS2_RS2_
FNDA:4,_ZSt9addressofIZN5QTest8qCompareIbbEEbRKT_RKT0_PKcS9_S9_iEUlvE_EPS2_RS2_
FN:145,_ZSt9addressofIZN5QTest8qCompareIbbEEbRKT_RKT0_PKcS9_S9_iEUlvE0_EPS2_RS2_
FNDA:4,_ZSt9addressofIZN5QTest8qCompareIbbEEbRKT_RKT0_PKcS9_S9_iEUlvE0_EPS2_RS2_
FN:196,_ZSt4swapIxENSt9enable_ifIXsrSt6__and_IJSt6__not_ISt15__is_tuple_likeIT_EESt21is_move_constructibleIS4_ESt18is_move_assignableIS4_EEE5valueEvE4typeERS4_SE_
FNDA:228,_ZSt4swapIxENSt9enable_ifIXsrSt6__and_IJSt6__not_ISt15__is_tuple_likeIT_EESt21is_move_constructibleIS4_ESt18is_move_assignableIS4_EEE5valueEvE4typeERS4_SE_
DA:49,1
DA:50,1
DA:49,2
DA:50,2
DA:49,2
DA:50,2
DA:49,1
DA:50,1
DA:49,1
DA:50,1
DA:49,1
DA:50,1
DA:49,1
DA:50,1
DA:49,2
DA:50,2
DA:49,2
DA:50,2
DA:49,1
DA:50,1
DA:49,1
DA:50,1
DA:49,128
DA:50,128
DA:49,1
DA:50,1
DA:49,1
DA:50,1
DA:49,1
DA:50,1
DA:49,1
DA:50,1
DA:49,1
DA:50,1
DA:49,4
DA:50,4
DA:49,4
DA:50,4
DA:49,2
DA:50,2
DA:49,2
DA:50,2
DA:49,725
DA:50,725
DA:77,0
DA:78,0
DA:77,28
DA:78,28
DA:77,542
DA:78,542
DA:77,542
DA:78,542
DA:77,0
DA:78,0
DA:77,0
DA:78,0
DA:77,0
DA:78,0
DA:77,0
DA:78,0
DA:77,0
DA:78,0
DA:77,0
DA:78,0
DA:77,0
DA:78,0
DA:77,0
DA:78,0
DA:77,0
DA:78,0
DA:77,0
DA:78,0
DA:77,0
DA:78,0
DA:77,0
DA:78,0
DA:77,0
DA:78,0
DA:77,0
DA:78,0
DA:77,0
DA:78,0
DA:77,0
DA:78,0
DA:77,0
DA:78,0
DA:77,0
DA:78,0
DA:77,0
DA:78,0
DA:104,14
DA:105,14
DA:104,684
DA:105,684
DA:145,1
DA:146,1
DA:145,2
DA:146,2
DA:145,2
DA:146,2
DA:145,1
DA:146,1
DA:145,1
DA:146,1
DA:145,1
DA:146,1
DA:145,1
DA:146,1
DA:145,2
DA:146,2
DA:145,2
DA:146,2
DA:145,1
DA:146,1
DA:145,2
DA:146,2
DA:145,1
DA:146,1
DA:145,1
DA:146,1
DA:145,1
DA:146,1
DA:145,1
DA:146,1
DA:145,1
DA:146,1
DA:145,1
DA:146,1
DA:145,4
DA:146,4
DA:145,4
DA:146,4
DA:145,2
DA:146,2
DA:196,228
DA:204,228
DA:205,228
DA:206,228
DA:207,228
end_of_record
SF:C:
Users
USER
Documents
UFMG
6
teste
testes_tp
build/..
tst_testes_de_unidade.cpp
FN:121,_ZN17testes_de_unidadeC2Ev
FNDA:1,_ZN17testes_de_unidadeC2Ev
FN:126,_ZN17testes_de_unidadeD2Ev
FNDA:1,_ZN17testes_de_unidadeD2Ev
FN:126,_ZN17testes_de_unidadeD0Ev
FNDA:0,_ZN17testes_de_unidadeD0Ev
FN:131,_ZN17testes_de_unidade21test_usuario_de_loginEv
FNDA:1,_ZN17testes_de_unidade21test_usuario_de_loginEv
FN:146,_ZN17testes_de_unidade29test_mutacao_usuario_de_loginEv
FNDA:1,_ZN17testes_de_unidade29test_mutacao_usuario_de_loginEv
FN:161,_ZN17testes_de_unidade19test_senha_de_loginEv
FNDA:1,_ZN17testes_de_unidade19test_senha_de_loginEv
FN:176,_ZN17testes_de_unidade27test_mutacao_senha_de_loginEv
FNDA:1,_ZN17testes_de_unidade27test_mutacao_senha_de_loginEv
FN:191,_ZN17testes_de_unidade23test_logintoprin_buttonEv
FNDA:1,_ZN17testes_de_unidade23test_logintoprin_buttonEv
FN:206,_ZN17testes_de_unidade30test_login_to_cadastrar_buttonEv
FNDA:1,_ZN17testes_de_unidade30test_login_to_cadastrar_buttonEv
FN:223,_ZN17testes_de_unidade37test_cadastrarusuario_to_login_buttonEv
FNDA:1,_ZN17testes_de_unidade37test_cadastrarusuario_to_login_buttonEv
FN:237,_ZN17testes_de_unidade29test_cancelar_to_login_buttonEv
FNDA:1,_ZN17testes_de_unidade29test_cancelar_to_login_buttonEv
FN:254,_ZN17testes_de_unidade49test_adicionarcontato_to_adicionar_contato_buttonEv
FNDA:1,_ZN17testes_de_unidade49test_adicionarcontato_to_adicionar_contato_buttonEv
FN:268,_ZN17testes_de_unidade44test_veragenda_to_pesquisar_na_agenda_buttonEv
FNDA:1,_ZN17testes_de_unidade44test_veragenda_to_pesquisar_na_agenda_buttonEv
FN:282,_ZN17testes_de_unidade42test_verperfil_to_perfil_de_usuario_buttonEv
FNDA:1,_ZN17testes_de_unidade42test_verperfil_to_perfil_de_usuario_buttonEv
FN:298,_ZN17testes_de_unidade30test_adicionar_to_login_buttonEv
FNDA:1,_ZN17testes_de_unidade30test_adicionar_to_login_buttonEv
FN:312,_ZN17testes_de_unidade45test_adicionar_confere_num_de_usuarios_buttonEv
FNDA:1,_ZN17testes_de_unidade45test_adicionar_confere_num_de_usuarios_buttonEv
FN:326,_ZN17testes_de_unidade44test_adicionar_confere_id_de_usuarios_buttonEv
FNDA:1,_ZN17testes_de_unidade44test_adicionar_confere_id_de_usuarios_buttonEv
FN:340,_ZN17testes_de_unidade46test_adicionar_confere_nome_de_usuarios_buttonEv
FNDA:1,_ZN17testes_de_unidade46test_adicionar_confere_nome_de_usuarios_buttonEv
FN:354,_ZN17testes_de_unidade49test_adicionar_confere_celular_de_usuarios_buttonEv
FNDA:1,_ZN17testes_de_unidade49test_adicionar_confere_celular_de_usuarios_buttonEv
FN:368,_ZN17testes_de_unidade47test_adicionar_confere_email_de_usuarios_buttonEv
FNDA:1,_ZN17testes_de_unidade47test_adicionar_confere_email_de_usuarios_buttonEv
FN:382,_ZN17testes_de_unidade51test_adicionar_confere_categoria_de_usuarios_buttonEv
FNDA:1,_ZN17testes_de_unidade51test_adicionar_confere_categoria_de_usuarios_buttonEv
FN:396,_ZN17testes_de_unidade38test_cancelaraddc_to_paginaprin_buttonEv
FNDA:1,_ZN17testes_de_unidade38test_cancelaraddc_to_paginaprin_buttonEv
FN:410,_ZN17testes_de_unidade46test_adicionar_confere_nome_errado_de_usuariosEv
FNDA:1,_ZN17testes_de_unidade46test_adicionar_confere_nome_errado_de_usuariosEv
FN:422,_ZN17testes_de_unidade49test_adicionar_confere_celular_errado_de_usuariosEv
FNDA:1,_ZN17testes_de_unidade49test_adicionar_confere_celular_errado_de_usuariosEv
FN:434,_ZN17testes_de_unidade47test_adicionar_confere_email_errado_de_usuariosEv
FNDA:1,_ZN17testes_de_unidade47test_adicionar_confere_email_errado_de_usuariosEv
FN:446,_ZN17testes_de_unidade51test_adicionar_confere_categoria_errada_de_usuariosEv
FNDA:1,_ZN17testes_de_unidade51test_adicionar_confere_categoria_errada_de_usuariosEv
FN:460,_ZN17testes_de_unidade42test_atualizarcontato_to_atualizar_contatoEv
FNDA:1,_ZN17testes_de_unidade42test_atualizarcontato_to_atualizar_contatoEv
FN:474,_ZN17testes_de_unidade26test_pesquisar_nome_buttonEv
FNDA:1,_ZN17testes_de_unidade26test_pesquisar_nome_buttonEv
FN:485,_ZN17testes_de_unidade29test_pesquisar_celular_buttonEv
FNDA:1,_ZN17testes_de_unidade29test_pesquisar_celular_buttonEv
FN:496,_ZN17testes_de_unidade27test_pesquisar_email_buttonEv
FNDA:1,_ZN17testes_de_unidade27test_pesquisar_email_buttonEv
FN:507,_ZN17testes_de_unidade31test_pesquisar_categoria_buttonEv
FNDA:1,_ZN17testes_de_unidade31test_pesquisar_categoria_buttonEv
FN:518,_ZN17testes_de_unidade32test_voltar_to_paginaprin_buttonEv
FNDA:1,_ZN17testes_de_unidade32test_voltar_to_paginaprin_buttonEv
FN:534,_ZN17testes_de_unidade26test_atualizarcontato_nomeEv
FNDA:1,_ZN17testes_de_unidade26test_atualizarcontato_nomeEv
FN:546,_ZN17testes_de_unidade29test_atualizarcontato_celularEv
FNDA:1,_ZN17testes_de_unidade29test_atualizarcontato_celularEv
FN:558,_ZN17testes_de_unidade27test_atualizarcontato_emailEv
FNDA:1,_ZN17testes_de_unidade27test_atualizarcontato_emailEv
FN:570,_ZN17testes_de_unidade31test_atualizarcontato_categoriaEv
FNDA:1,_ZN17testes_de_unidade31test_atualizarcontato_categoriaEv
FN:583,_ZN17testes_de_unidade36test_atualizarcontato_nome_e_celularEv
FNDA:1,_ZN17testes_de_unidade36test_atualizarcontato_nome_e_celularEv
FN:596,_ZN17testes_de_unidade34test_atualizarcontato_nome_e_emailEv
FNDA:1,_ZN17testes_de_unidade34test_atualizarcontato_nome_e_emailEv
FN:609,_ZN17testes_de_unidade38test_atualizarcontato_nome_e_categoriaEv
FNDA:1,_ZN17testes_de_unidade38test_atualizarcontato_nome_e_categoriaEv
FN:622,_ZN17testes_de_unidade37test_atualizarcontato_celular_e_emailEv
FNDA:1,_ZN17testes_de_unidade37test_atualizarcontato_celular_e_emailEv
FN:635,_ZN17testes_de_unidade41test_atualizarcontato_celular_e_categoriaEv
FNDA:1,_ZN17testes_de_unidade41test_atualizarcontato_celular_e_categoriaEv
FN:648,_ZN17testes_de_unidade39test_atualizarcontato_email_e_categoriaEv
FNDA:1,_ZN17testes_de_unidade39test_atualizarcontato_email_e_categoriaEv
FN:663,_ZN17testes_de_unidade42test_atualizarcontato_nome_celular_e_emailEv
FNDA:1,_ZN17testes_de_unidade42test_atualizarcontato_nome_celular_e_emailEv
FN:678,_ZN17testes_de_unidade46test_atualizarcontato_nome_celular_e_categoriaEv
FNDA:1,_ZN17testes_de_unidade46test_atualizarcontato_nome_celular_e_categoriaEv
FN:693,_ZN17testes_de_unidade44test_atualizarcontato_nome_email_e_categoriaEv
FNDA:1,_ZN17testes_de_unidade44test_atualizarcontato_nome_email_e_categoriaEv
FN:708,_ZN17testes_de_unidade47test_atualizarcontato_celular_email_e_categoriaEv
FNDA:1,_ZN17testes_de_unidade47test_atualizarcontato_celular_email_e_categoriaEv
FN:723,_ZN17testes_de_unidade52test_atualizarcontato_nome_celular_email_e_categoriaEv
FNDA:1,_ZN17testes_de_unidade52test_atualizarcontato_nome_celular_email_e_categoriaEv
FN:739,_ZN17testes_de_unidade44test_atualizar_to_pesquisar_na_agenda_buttonEv
FNDA:1,_ZN17testes_de_unidade44test_atualizar_to_pesquisar_na_agenda_buttonEv
FN:753,_ZN17testes_de_unidade46test_cancelaratc_to_pesquisar_na_agenda_buttonEv
FNDA:1,_ZN17testes_de_unidade46test_cancelaratc_to_pesquisar_na_agenda_buttonEv
FN:770,_ZN17testes_de_unidade38test_voltar_to_pagina_principal_buttonEv
FNDA:1,_ZN17testes_de_unidade38test_voltar_to_pagina_principal_buttonEv
FN:783,_ZN17testes_de_unidade20test_usuario_corretoEv
FNDA:1,_ZN17testes_de_unidade20test_usuario_corretoEv
FN:798,_ZN17testes_de_unidade18test_senha_corretaEv
FNDA:1,_ZN17testes_de_unidade18test_senha_corretaEv
FN:822,_ZN17testes_de_unidade42test_nome_tabela_no_banco_de_dados_corretoEv
FNDA:1,_ZN17testes_de_unidade42test_nome_tabela_no_banco_de_dados_corretoEv
FN:837,_ZN17testes_de_unidade21test_adicionarcontatoEv
FNDA:1,_ZN17testes_de_unidade21test_adicionarcontatoEv
FN:864,_ZN17testes_de_unidade21test_atualizarcontatoEv
FNDA:1,_ZN17testes_de_unidade21test_atualizarcontatoEv
FN:893,_ZN17testes_de_unidade19test_excluircontatoEv
FNDA:1,_ZN17testes_de_unidade19test_excluircontatoEv
FN:913,_ZN17testes_de_unidade21test_pesquisarcontatoEv
FNDA:1,_ZN17testes_de_unidade21test_pesquisarcontatoEv
FN:935,_ZN17testes_de_unidade26test_adicionar_e_pesquisarEv
FNDA:1,_ZN17testes_de_unidade26test_adicionar_e_pesquisarEv
FN:995,main
FNDA:1,main
DA:121,1
DA:124,1
DA:126,0
DA:129,0
DA:126,1
DA:129,1
DA:131,1
DA:133,1
DA:134,1
DA:136,1
DA:137,1
DA:139,1
DA:140,1
DA:142,1
DA:144,1
DA:145,1
DA:146,1
DA:148,1
DA:149,1
DA:151,1
DA:152,1
DA:154,1
DA:155,1
DA:157,1
DA:159,1
DA:160,1
DA:161,1
DA:163,1
DA:164,1
DA:166,1
DA:167,1
DA:169,1
DA:170,1
DA:172,1
DA:174,1
DA:175,1
DA:176,1
DA:178,1
DA:179,1
DA:181,1
DA:182,1
DA:184,1
DA:185,1
DA:187,1
DA:189,1
DA:190,1
DA:191,1
DA:193,1
DA:194,1
DA:196,1
DA:197,1
DA:199,1
DA:201,1
DA:203,1
DA:205,1
DA:206,1
DA:208,1
DA:209,1
DA:211,1
DA:212,1
DA:214,1
DA:216,1
DA:218,1
DA:219,1
DA:223,1
DA:225,1
DA:226,1
DA:228,1
DA:229,1
DA:231,1
DA:233,1
DA:235,1
DA:236,1
DA:237,1
DA:239,1
DA:240,1
DA:242,1
DA:243,1
DA:245,1
DA:247,1
DA:249,1
DA:250,1
DA:254,1
DA:256,1
DA:257,1
DA:259,1
DA:260,1
DA:262,1
DA:264,1
DA:266,1
DA:267,1
DA:268,1
DA:270,1
DA:271,1
DA:273,1
DA:274,1
DA:276,1
DA:278,1
DA:280,1
DA:281,1
DA:282,1
DA:284,1
DA:285,1
DA:287,1
DA:288,1
DA:290,1
DA:292,1
DA:294,1
DA:295,1
DA:298,1
DA:300,1
DA:301,1
DA:303,1
DA:304,1
DA:306,1
DA:308,1
DA:310,1
DA:311,1
DA:312,1
DA:314,1
DA:315,1
DA:317,1
DA:318,1
DA:319,1
DA:321,1
DA:323,1
DA:325,1
DA:326,1
DA:328,1
DA:329,1
DA:331,1
DA:332,1
DA:333,1
DA:335,1
DA:337,1
DA:338,1
DA:339,1
DA:340,1
DA:342,1
DA:343,1
DA:345,1
DA:346,1
DA:347,1
DA:349,1
DA:351,1
DA:352,1
DA:353,1
DA:354,1
DA:356,1
DA:357,1
DA:359,1
DA:360,1
DA:361,1
DA:363,1
DA:365,1
DA:366,1
DA:367,1
DA:368,1
DA:370,1
DA:371,1
DA:373,1
DA:374,1
DA:375,1
DA:377,1
DA:379,1
DA:380,1
DA:381,1
DA:382,1
DA:384,1
DA:385,1
DA:387,1
DA:388,1
DA:389,1
DA:391,1
DA:393,1
DA:394,1
DA:395,1
DA:396,1
DA:398,1
DA:399,1
DA:401,1
DA:402,1
DA:404,1
DA:406,1
DA:408,1
DA:409,1
DA:410,1
DA:411,1
DA:412,1
DA:414,1
DA:415,1
DA:416,1
DA:418,1
DA:420,1
DA:421,1
DA:422,1
DA:423,1
DA:424,1
DA:426,1
DA:427,1
DA:428,1
DA:430,1
DA:432,1
DA:433,1
DA:434,1
DA:435,1
DA:436,1
DA:438,1
DA:439,1
DA:440,1
DA:442,1
DA:444,1
DA:445,1
DA:446,1
DA:447,1
DA:448,1
DA:450,1
DA:451,1
DA:452,1
DA:454,1
DA:456,1
DA:457,1
DA:460,1
DA:462,1
DA:463,1
DA:465,1
DA:466,1
DA:468,1
DA:470,1
DA:472,1
DA:473,1
DA:474,1
DA:475,1
DA:476,1
DA:478,1
DA:479,1
DA:481,6
DA:483,1
DA:484,1
DA:485,1
DA:486,1
DA:487,1
DA:489,1
DA:490,1
DA:492,6
DA:494,1
DA:495,1
DA:496,1
DA:497,1
DA:498,1
DA:500,1
DA:501,1
DA:503,6
DA:505,1
DA:506,1
DA:507,1
DA:508,1
DA:509,1
DA:511,1
DA:512,1
DA:514,6
DA:516,1
DA:517,1
DA:518,1
DA:520,1
DA:521,1
DA:523,1
DA:524,1
DA:526,1
DA:528,1
DA:530,1
DA:531,1
DA:534,1
DA:535,1
DA:536,1
DA:538,1
DA:540,1
DA:542,1
DA:544,1
DA:545,1
DA:546,1
DA:547,1
DA:548,1
DA:550,1
DA:552,1
DA:554,1
DA:556,1
DA:557,1
DA:558,1
DA:559,1
DA:560,1
DA:562,1
DA:564,1
DA:566,1
DA:568,1
DA:569,1
DA:570,1
DA:571,1
DA:572,1
DA:574,1
DA:576,1
DA:578,1
DA:580,1
DA:581,1
DA:583,1
DA:584,1
DA:585,1
DA:587,1
DA:589,1
DA:591,1
DA:593,1
DA:594,1
DA:595,1
DA:596,1
DA:597,1
DA:598,1
DA:600,1
DA:602,1
DA:604,1
DA:606,1
DA:607,1
DA:608,1
DA:609,1
DA:610,1
DA:611,1
DA:613,1
DA:615,1
DA:617,1
DA:619,1
DA:620,1
DA:621,1
DA:622,1
DA:623,1
DA:624,1
DA:626,1
DA:628,1
DA:630,1
DA:632,1
DA:633,1
DA:634,1
DA:635,1
DA:636,1
DA:637,1
DA:639,1
DA:641,1
DA:643,1
DA:645,1
DA:646,1
DA:647,1
DA:648,1
DA:649,1
DA:650,1
DA:652,1
DA:654,1
DA:656,1
DA:658,1
DA:659,1
DA:661,1
DA:663,1
DA:664,1
DA:665,1
DA:667,1
DA:669,1
DA:671,1
DA:673,1
DA:674,1
DA:675,1
DA:677,1
DA:678,1
DA:679,1
DA:680,1
DA:682,1
DA:684,1
DA:686,1
DA:688,1
DA:689,1
DA:690,1
DA:692,1
DA:693,1
DA:694,1
DA:695,1
DA:697,1
DA:699,1
DA:701,1
DA:703,1
DA:704,1
DA:705,1
DA:707,1
DA:708,1
DA:709,1
DA:710,1
DA:712,1
DA:714,1
DA:716,1
DA:718,1
DA:719,1
DA:720,1
DA:721,1
DA:723,1
DA:724,1
DA:725,1
DA:727,1
DA:729,1
DA:731,1
DA:733,1
DA:734,1
DA:735,1
DA:736,1
DA:737,1
DA:739,1
DA:741,1
DA:742,1
DA:744,1
DA:745,1
DA:747,1
DA:749,1
DA:751,1
DA:752,1
DA:753,1
DA:755,1
DA:756,1
DA:758,1
DA:759,1
DA:761,1
DA:763,1
DA:765,1
DA:766,1
DA:770,1
DA:771,1
DA:772,1
DA:774,1
DA:775,1
DA:777,1
DA:779,1
DA:781,1
DA:782,1
DA:783,1
DA:785,1
DA:786,1
DA:788,1
DA:789,1
DA:791,1
DA:792,1
DA:794,1
DA:796,1
DA:797,1
DA:798,1
DA:800,1
DA:801,1
DA:803,1
DA:804,1
DA:806,1
DA:807,1
DA:809,1
DA:811,1
DA:812,1
DA:814,1
DA:815,1
DA:817,1
DA:819,1
DA:821,1
DA:822,1
DA:824,1
DA:825,1
DA:827,1
DA:828,1
DA:830,1
DA:832,1
DA:834,1
DA:837,1
DA:838,1
DA:839,1
DA:841,1
DA:842,1
DA:844,1
DA:846,1
DA:847,1
DA:849,1
DA:850,1
DA:852,1
DA:853,1
DA:855,1
DA:856,1
DA:858,1
DA:861,1
DA:863,1
DA:864,1
DA:866,1
DA:867,1
DA:869,1
DA:871,1
DA:872,1
DA:874,1
DA:876,1
DA:877,1
DA:879,1
DA:880,1
DA:882,1
DA:883,1
DA:885,1
DA:886,1
DA:888,1
DA:891,1
DA:892,1
DA:893,1
DA:894,1
DA:895,1
DA:897,1
DA:898,1
DA:900,1
DA:902,1
DA:904,1
DA:905,1
DA:907,1
DA:909,1
DA:910,1
DA:912,1
DA:913,1
DA:914,1
DA:915,1
DA:917,1
DA:918,1
DA:920,1
DA:922,1
DA:923,1
DA:925,1
DA:927,1
DA:929,2
DA:930,1
DA:931,1
DA:932,1
DA:933,1
DA:935,1
DA:936,1
DA:937,1
DA:939,1
DA:940,1
DA:941,1
DA:943,1
DA:944,1
DA:945,1
DA:947,1
DA:948,1
DA:949,1
DA:952,1
DA:953,1
DA:955,1
DA:956,1
DA:958,1
DA:959,1
DA:961,1
DA:962,1
DA:964,1
DA:967,1
DA:969,1
DA:970,1
DA:972,1
DA:973,1
DA:976,1
DA:977,1
DA:978,1
DA:980,11
DA:981,10
DA:982,10
DA:984,10
DA:985,10
DA:987,10
DA:988,10
DA:990,10
DA:991,10
DA:992,10
DA:993,1
DA:995,1
end_of_record
SF:C:
Users
USER
Documents
UFMG
6
teste
testes_tp
build/C:/Qt/6.6.0/mingw_64/include/QtCore/qflags.h
FN:31,_ZN5QFlagC1Ej
FNDA:1383,_ZN5QFlagC1Ej
FN:34,_ZNK5QFlagcvjEv
FNDA:1383,_ZNK5QFlagcvjEv
FN:73,_ZN6QFlagsIN2Qt16KeyboardModifierEEC1Ev
FNDA:6,_ZN6QFlagsIN2Qt16KeyboardModifierEEC1Ev
FN:73,_ZN6QFlagsIN2Qt10WindowTypeEEC1Ev
FNDA:156,_ZN6QFlagsIN2Qt10WindowTypeEEC1Ev
FN:74,_ZN6QFlagsIN2Qt15FindChildOptionEEC1ES1_
FNDA:33,_ZN6QFlagsIN2Qt15FindChildOptionEEC1ES1_
FN:74,_ZN6QFlagsIN2Qt11MouseButtonEEC1ES1_
FNDA:7,_ZN6QFlagsIN2Qt11MouseButtonEEC1ES1_
FN:74,_ZN6QFlagsIN2Qt16KeyboardModifierEEC1ES1_
FNDA:21,_ZN6QFlagsIN2Qt16KeyboardModifierEEC1ES1_
FN:74,_ZN6QFlagsIN10QEventLoop17ProcessEventsFlagEEC1ES1_
FNDA:0,_ZN6QFlagsIN10QEventLoop17ProcessEventsFlagEEC1ES1_
FN:75,_ZN6QFlagsIN2Qt11MouseButtonEEC1E5QFlag
FNDA:7,_ZN6QFlagsIN2Qt11MouseButtonEEC1E5QFlag
FN:75,_ZN6QFlagsIN2Qt16KeyboardModifierEEC1E5QFlag
FNDA:1376,_ZN6QFlagsIN2Qt16KeyboardModifierEEC1E5QFlag
FN:87,_ZN6QFlagsIN2Qt11MouseButtonEEaNES2_
FNDA:7,_ZN6QFlagsIN2Qt11MouseButtonEEaNES2_
FN:88,_ZN6QFlagsIN2Qt16KeyboardModifierEEaNES1_
FNDA:14,_ZN6QFlagsIN2Qt16KeyboardModifierEEaNES1_
FN:90,_ZN6QFlagsIN2Qt11MouseButtonEEoRES1_
FNDA:7,_ZN6QFlagsIN2Qt11MouseButtonEEoRES1_
FN:103,_ZNK6QFlagsIN2Qt16KeyboardModifierEEcvjEv
FNDA:1376,_ZNK6QFlagsIN2Qt16KeyboardModifierEEcvjEv
FN:104,_ZNK6QFlagsIN2Qt16KeyboardModifierEEntEv
FNDA:14,_ZNK6QFlagsIN2Qt16KeyboardModifierEEntEv
FN:108,_ZNK6QFlagsIN2Qt16KeyboardModifierEEorES1_
FNDA:0,_ZNK6QFlagsIN2Qt16KeyboardModifierEEorES1_
FN:115,_ZNK6QFlagsIN2Qt16KeyboardModifierEEanES2_
FNDA:0,_ZNK6QFlagsIN2Qt16KeyboardModifierEEanES2_
FN:116,_ZNK6QFlagsIN2Qt16KeyboardModifierEEanES1_
FNDA:1376,_ZNK6QFlagsIN2Qt16KeyboardModifierEEanES1_
FN:117,_ZNK6QFlagsIN2Qt11MouseButtonEEcoEv
FNDA:7,_ZNK6QFlagsIN2Qt11MouseButtonEEcoEv
FN:130,_ZN6QFlagsIN2Qt11MouseButtonEE7setFlagES1_b
FNDA:14,_ZN6QFlagsIN2Qt11MouseButtonEE7setFlagES1_b
FN:135,_Zeq6QFlagsIN2Qt11MouseButtonEES2_
FNDA:0,_Zeq6QFlagsIN2Qt11MouseButtonEES2_
FN:139,_Zeq6QFlagsIN2Qt11MouseButtonEES1_
FNDA:0,_Zeq6QFlagsIN2Qt11MouseButtonEES1_
DA:31,1383
DA:34,1383
DA:73,6
DA:73,156
DA:74,33
DA:74,0
DA:74,21
DA:74,7
DA:75,7
DA:75,1376
DA:87,7
DA:88,14
DA:90,7
DA:103,1376
DA:104,14
DA:108,0
DA:115,0
DA:116,1376
DA:117,7
DA:130,14
DA:132,14
DA:135,0
DA:136,0
DA:139,0
DA:140,0
end_of_record
SF:C:
Users
USER
Documents
UFMG
6
teste
testes_tp
build/C:/Qt/6.6.0/mingw_64/include/QtCore/qpoint.h
FN:118,_ZN6QPointC1Ev
FNDA:6,_ZN6QPointC1Ev
FN:120,_ZN6QPointC1Eii
FNDA:7,_ZN6QPointC1Eii
FN:122,_ZNK6QPoint6isNullEv
FNDA:21,_ZNK6QPoint6isNullEv
FN:127,_ZNK6QPoint1xEv
FNDA:28,_ZNK6QPoint1xEv
FN:132,_ZNK6QPoint1yEv
FNDA:28,_ZNK6QPoint1yEv
FN:321,_ZN7QPointFC1ERK6QPoint
FNDA:28,_ZN7QPointFC1ERK6QPoint
DA:118,6
DA:120,7
DA:122,21
DA:124,21
DA:127,28
DA:129,28
DA:132,28
DA:134,28
DA:321,28
end_of_record
SF:C:
Users
USER
Documents
UFMG
6
teste
testes_tp
build/C:/Qt/6.6.0/mingw_64/include/QtWidgets/qtablewidget.h
FN:74,_ZNK16QTableWidgetItem4textEv
FNDA:56,_ZNK16QTableWidgetItem4textEv
DA:74,56
DA:75,112
end_of_record
SF:C:
Users
USER
Documents
UFMG
6
teste
testes_tp
build/C:/Qt/6.6.0/mingw_64/include/QtTest/qtestkeyboard.h
FN:39,_ZN5QTestL13simulateEventEP7QWindowbi6QFlagsIN2Qt16KeyboardModifierEE7QStringbi
FNDA:0,_ZN5QTestL13simulateEventEP7QWindowbi6QFlagsIN2Qt16KeyboardModifierEE7QStringbi
FN:48,_ZN5QTestL12sendKeyEventENS_9KeyActionEP7QWindowN2Qt3KeyE7QString6QFlagsINS3_16KeyboardModifierEEi
FNDA:0,_ZN5QTestL12sendKeyEventENS_9KeyActionEP7QWindowN2Qt3KeyE7QString6QFlagsINS3_16KeyboardModifierEEi
FN:109,_ZN5QTestL12sendKeyEventENS_9KeyActionEP7QWindowN2Qt3KeyEc6QFlagsINS3_16KeyboardModifierEEi
FNDA:0,_ZN5QTestL12sendKeyEventENS_9KeyActionEP7QWindowN2Qt3KeyEc6QFlagsINS3_16KeyboardModifierEEi
FN:150,_ZN5QTestL13simulateEventEP7QWidgetbi6QFlagsIN2Qt16KeyboardModifierEE7QStringbi
FNDA:344,_ZN5QTestL13simulateEventEP7QWidgetbi6QFlagsIN2Qt16KeyboardModifierEE7QStringbi
FN:170,_ZN5QTestL12sendKeyEventENS_9KeyActionEP7QWidgetN2Qt3KeyE7QString6QFlagsINS3_16KeyboardModifierEEi
FNDA:516,_ZN5QTestL12sendKeyEventENS_9KeyActionEP7QWidgetN2Qt3KeyE7QString6QFlagsINS3_16KeyboardModifierEEi
FN:243,_ZN5QTestL12sendKeyEventENS_9KeyActionEP7QWidgetN2Qt3KeyEc6QFlagsINS3_16KeyboardModifierEEi
FNDA:172,_ZN5QTestL12sendKeyEventENS_9KeyActionEP7QWidgetN2Qt3KeyEc6QFlagsINS3_16KeyboardModifierEEi
FN:252,_ZN5QTestL8keyEventENS_9KeyActionEP7QWidgetc6QFlagsIN2Qt16KeyboardModifierEEi
FNDA:171,_ZN5QTestL8keyEventENS_9KeyActionEP7QWidgetc6QFlagsIN2Qt16KeyboardModifierEEi
FN:255,_ZN5QTestL8keyEventENS_9KeyActionEP7QWidgetN2Qt3KeyE6QFlagsINS3_16KeyboardModifierEEi
FNDA:1,_ZN5QTestL8keyEventENS_9KeyActionEP7QWidgetN2Qt3KeyE6QFlagsINS3_16KeyboardModifierEEi
FN:259,_ZN5QTestL9keyClicksEP7QWidgetRK7QString6QFlagsIN2Qt16KeyboardModifierEEi
FNDA:19,_ZN5QTestL9keyClicksEP7QWidgetRK7QString6QFlagsIN2Qt16KeyboardModifierEEi
FN:276,_ZN5QTestL8keyClickEP7QWidgetN2Qt3KeyE6QFlagsINS2_16KeyboardModifierEEi
FNDA:1,_ZN5QTestL8keyClickEP7QWidgetN2Qt3KeyE6QFlagsINS2_16KeyboardModifierEEi
DA:39,0
DA:43,0
DA:44,0
DA:45,0
DA:46,0
DA:48,0
DA:51,0
DA:53,0
DA:54,0
DA:56,0
DA:59,0
DA:60,0
DA:61,0
DA:62,0
DA:63,0
DA:64,0
DA:65,0
DA:66,0
DA:68,0
DA:70,0
DA:71,0
DA:72,0
DA:73,0
DA:76,0
DA:77,0
DA:78,0
DA:80,0
DA:81,0
DA:83,0
DA:84,0
DA:85,0
DA:86,0
DA:87,0
DA:88,0
DA:89,0
DA:90,0
DA:91,0
DA:93,0
DA:94,0
DA:95,0
DA:96,0
DA:97,0
DA:99,0
DA:100,0
DA:101,0
DA:103,0
DA:104,0
DA:109,0
DA:112,0
DA:113,0
DA:114,0
DA:115,0
DA:116,0
DA:150,344
DA:153,344
DA:156,344
DA:157,344
DA:158,344
DA:159,0
DA:161,344
DA:162,344
DA:164,344
DA:165,0
DA:166,344
DA:167,0
DA:168,344
DA:170,516
DA:173,516
DA:175,516
DA:176,0
DA:177,516
DA:179,0
DA:180,0
DA:182,516
DA:183,0
DA:184,0
DA:185,0
DA:186,0
DA:189,516
DA:190,0
DA:191,516
DA:192,0
DA:194,516
DA:196,516
DA:197,172
DA:198,172
DA:199,172
DA:202,0
DA:204,172
DA:205,172
DA:206,172
DA:208,344
DA:210,344
DA:211,172
DA:212,0
DA:214,172
DA:215,0
DA:217,172
DA:218,0
DA:219,0
DA:220,172
DA:221,0
DA:222,0
DA:223,172
DA:224,172
DA:225,172
DA:227,172
DA:228,0
DA:229,172
DA:230,0
DA:231,0
DA:233,172
DA:234,0
DA:235,0
DA:237,172
DA:238,0
DA:243,172
DA:246,172
DA:247,172
DA:248,172
DA:249,172
DA:250,172
DA:252,171
DA:254,171
DA:255,1
DA:257,1
DA:259,19
DA:262,190
DA:263,171
DA:264,19
DA:276,1
DA:277,1
end_of_record
SF:C:
Users
USER
Documents
UFMG
6
teste
testes_tp
build/C:/Qt/Tools/mingw1120_64/lib/gcc/x86_64-w64-mingw32/11.2.0/include/c++/bits/atomic_base.h
FN:104,_ZStanSt12memory_orderSt23__memory_order_modifier
FNDA:2269,_ZStanSt12memory_orderSt23__memory_order_modifier
FN:338,_ZNSt13__atomic_baseIiEC2Ei
FNDA:14,_ZNSt13__atomic_baseIiEC2Ei
DA:104,2269
DA:106,2269
DA:338,14
DA:477,2269
DA:481,2269
DA:636,1674
DA:646,4267
end_of_record
SF:C:
Users
USER
Documents
UFMG
6
teste
testes_tp
build/C:/Qt/Tools/mingw1120_64/lib/gcc/x86_64-w64-mingw32/11.2.0/include/c++/bits/invoke.h
FN:60,_ZSt13__invoke_implIPcRZN5QTest8qCompareI7QStringA10_cEEbRKT_RKT0_PKcSC_SC_iEUlvE_JEES5_St14__invoke_otherOS8_DpOT1_
FNDA:0,_ZSt13__invoke_implIPcRZN5QTest8qCompareI7QStringA10_cEEbRKT_RKT0_PKcSC_SC_iEUlvE_JEES5_St14__invoke_otherOS8_DpOT1_
FN:60,_ZSt13__invoke_implIPcRZN5QTest8qCompareI7QStringA10_cEEbRKT_RKT0_PKcSC_SC_iEUlvE0_JEES5_St14__invoke_otherOS8_DpOT1_
FNDA:0,_ZSt13__invoke_implIPcRZN5QTest8qCompareI7QStringA10_cEEbRKT_RKT0_PKcSC_SC_iEUlvE0_JEES5_St14__invoke_otherOS8_DpOT1_
FN:60,_ZSt13__invoke_implIPcRZN5QTest8qCompareI7QStringA3_cEEbRKT_RKT0_PKcSC_SC_iEUlvE_JEES5_St14__invoke_otherOS8_DpOT1_
FNDA:0,_ZSt13__invoke_implIPcRZN5QTest8qCompareI7QStringA3_cEEbRKT_RKT0_PKcSC_SC_iEUlvE_JEES5_St14__invoke_otherOS8_DpOT1_
FN:60,_ZSt13__invoke_implIPcRZN5QTest8qCompareI7QStringA3_cEEbRKT_RKT0_PKcSC_SC_iEUlvE0_JEES5_St14__invoke_otherOS8_DpOT1_
FNDA:0,_ZSt13__invoke_implIPcRZN5QTest8qCompareI7QStringA3_cEEbRKT_RKT0_PKcSC_SC_iEUlvE0_JEES5_St14__invoke_otherOS8_DpOT1_
FN:60,_ZSt13__invoke_implIPcRZN5QTest8qCompareI7QStringA6_cEEbRKT_RKT0_PKcSC_SC_iEUlvE_JEES5_St14__invoke_otherOS8_DpOT1_
FNDA:0,_ZSt13__invoke_implIPcRZN5QTest8qCompareI7QStringA6_cEEbRKT_RKT0_PKcSC_SC_iEUlvE_JEES5_St14__invoke_otherOS8_DpOT1_
FN:60,_ZSt13__invoke_implIPcRZN5QTest8qCompareI7QStringA6_cEEbRKT_RKT0_PKcSC_SC_iEUlvE0_JEES5_St14__invoke_otherOS8_DpOT1_
FNDA:0,_ZSt13__invoke_implIPcRZN5QTest8qCompareI7QStringA6_cEEbRKT_RKT0_PKcSC_SC_iEUlvE0_JEES5_St14__invoke_otherOS8_DpOT1_
FN:60,_ZSt13__invoke_implIPcRZN5QTest8qCompareI7QStringA14_cEEbRKT_RKT0_PKcSC_SC_iEUlvE_JEES5_St14__invoke_otherOS8_DpOT1_
FNDA:0,_ZSt13__invoke_implIPcRZN5QTest8qCompareI7QStringA14_cEEbRKT_RKT0_PKcSC_SC_iEUlvE_JEES5_St14__invoke_otherOS8_DpOT1_
FN:60,_ZSt13__invoke_implIPcRZN5QTest8qCompareI7QStringA14_cEEbRKT_RKT0_PKcSC_SC_iEUlvE0_JEES5_St14__invoke_otherOS8_DpOT1_
FNDA:0,_ZSt13__invoke_implIPcRZN5QTest8qCompareI7QStringA14_cEEbRKT_RKT0_PKcSC_SC_iEUlvE0_JEES5_St14__invoke_otherOS8_DpOT1_
FN:60,_ZSt13__invoke_implIPcRZN5QTest8qCompareI7QStringA12_cEEbRKT_RKT0_PKcSC_SC_iEUlvE_JEES5_St14__invoke_otherOS8_DpOT1_
FNDA:0,_ZSt13__invoke_implIPcRZN5QTest8qCompareI7QStringA12_cEEbRKT_RKT0_PKcSC_SC_iEUlvE_JEES5_St14__invoke_otherOS8_DpOT1_
FN:60,_ZSt13__invoke_implIPcRZN5QTest8qCompareI7QStringA12_cEEbRKT_RKT0_PKcSC_SC_iEUlvE0_JEES5_St14__invoke_otherOS8_DpOT1_
FNDA:0,_ZSt13__invoke_implIPcRZN5QTest8qCompareI7QStringA12_cEEbRKT_RKT0_PKcSC_SC_iEUlvE0_JEES5_St14__invoke_otherOS8_DpOT1_
FN:60,_ZSt13__invoke_implIPcRZN5QTest8qCompareI7QStringA18_cEEbRKT_RKT0_PKcSC_SC_iEUlvE_JEES5_St14__invoke_otherOS8_DpOT1_
FNDA:0,_ZSt13__invoke_implIPcRZN5QTest8qCompareI7QStringA18_cEEbRKT_RKT0_PKcSC_SC_iEUlvE_JEES5_St14__invoke_otherOS8_DpOT1_
FN:60,_ZSt13__invoke_implIPcRZN5QTest8qCompareI7QStringA13_cEEbRKT_RKT0_PKcSC_SC_iEUlvE_JEES5_St14__invoke_otherOS8_DpOT1_
FNDA:0,_ZSt13__invoke_implIPcRZN5QTest8qCompareI7QStringA13_cEEbRKT_RKT0_PKcSC_SC_iEUlvE_JEES5_St14__invoke_otherOS8_DpOT1_
FN:60,_ZSt13__invoke_implIPcRZN5QTest8qCompareI7QStringA13_cEEbRKT_RKT0_PKcSC_SC_iEUlvE0_JEES5_St14__invoke_otherOS8_DpOT1_
FNDA:0,_ZSt13__invoke_implIPcRZN5QTest8qCompareI7QStringA13_cEEbRKT_RKT0_PKcSC_SC_iEUlvE0_JEES5_St14__invoke_otherOS8_DpOT1_
FN:60,_ZSt13__invoke_implIPcRZN5QTest8qCompareI7QStringA8_cEEbRKT_RKT0_PKcSC_SC_iEUlvE_JEES5_St14__invoke_otherOS8_DpOT1_
FNDA:0,_ZSt13__invoke_implIPcRZN5QTest8qCompareI7QStringA8_cEEbRKT_RKT0_PKcSC_SC_iEUlvE_JEES5_St14__invoke_otherOS8_DpOT1_
FN:60,_ZSt13__invoke_implIPcRZN5QTest8qCompareI7QStringA8_cEEbRKT_RKT0_PKcSC_SC_iEUlvE0_JEES5_St14__invoke_otherOS8_DpOT1_
FNDA:0,_ZSt13__invoke_implIPcRZN5QTest8qCompareI7QStringA8_cEEbRKT_RKT0_PKcSC_SC_iEUlvE0_JEES5_St14__invoke_otherOS8_DpOT1_
FN:60,_ZSt13__invoke_implIPcRZN5QTest8qCompareI7QStringA7_cEEbRKT_RKT0_PKcSC_SC_iEUlvE_JEES5_St14__invoke_otherOS8_DpOT1_
FNDA:0,_ZSt13__invoke_implIPcRZN5QTest8qCompareI7QStringA7_cEEbRKT_RKT0_PKcSC_SC_iEUlvE_JEES5_St14__invoke_otherOS8_DpOT1_
FN:60,_ZSt13__invoke_implIPcRZN5QTest8qCompareI7QStringA7_cEEbRKT_RKT0_PKcSC_SC_iEUlvE0_JEES5_St14__invoke_otherOS8_DpOT1_
FNDA:0,_ZSt13__invoke_implIPcRZN5QTest8qCompareI7QStringA7_cEEbRKT_RKT0_PKcSC_SC_iEUlvE0_JEES5_St14__invoke_otherOS8_DpOT1_
FN:60,_ZSt13__invoke_implIPcRZN5QTest8qCompareIbbEEbRKT_RKT0_PKcSA_SA_iEUlvE_JEES3_St14__invoke_otherOS6_DpOT1_
FNDA:0,_ZSt13__invoke_implIPcRZN5QTest8qCompareIbbEEbRKT_RKT0_PKcSA_SA_iEUlvE_JEES3_St14__invoke_otherOS6_DpOT1_
FN:60,_ZSt13__invoke_implIPcRZN5QTest8qCompareIbbEEbRKT_RKT0_PKcSA_SA_iEUlvE0_JEES3_St14__invoke_otherOS6_DpOT1_
FNDA:0,_ZSt13__invoke_implIPcRZN5QTest8qCompareIbbEEbRKT_RKT0_PKcSA_SA_iEUlvE0_JEES3_St14__invoke_otherOS6_DpOT1_
FN:60,_ZSt13__invoke_implIPcRZN5QTest8qCompareI7QStringA18_cEEbRKT_RKT0_PKcSC_SC_iEUlvE0_JEES5_St14__invoke_otherOS8_DpOT1_
FNDA:0,_ZSt13__invoke_implIPcRZN5QTest8qCompareI7QStringA18_cEEbRKT_RKT0_PKcSC_SC_iEUlvE0_JEES5_St14__invoke_otherOS8_DpOT1_
FN:90,_ZSt8__invokeIRZN5QTest8qCompareI7QStringA18_cEEbRKT_RKT0_PKcSB_SB_iEUlvE0_JEENSt15__invoke_resultIS4_JDpT0_EE4typeEOS4_DpOSF_
FNDA:0,_ZSt8__invokeIRZN5QTest8qCompareI7QStringA18_cEEbRKT_RKT0_PKcSB_SB_iEUlvE0_JEENSt15__invoke_resultIS4_JDpT0_EE4typeEOS4_DpOSF_
FN:90,_ZSt8__invokeIRZN5QTest8qCompareI7QStringA18_cEEbRKT_RKT0_PKcSB_SB_iEUlvE_JEENSt15__invoke_resultIS4_JDpT0_EE4typeEOS4_DpOSF_
FNDA:0,_ZSt8__invokeIRZN5QTest8qCompareI7QStringA18_cEEbRKT_RKT0_PKcSB_SB_iEUlvE_JEENSt15__invoke_resultIS4_JDpT0_EE4typeEOS4_DpOSF_
FN:90,_ZSt8__invokeIRZN5QTest8qCompareI7QStringA12_cEEbRKT_RKT0_PKcSB_SB_iEUlvE0_JEENSt15__invoke_resultIS4_JDpT0_EE4typeEOS4_DpOSF_
FNDA:0,_ZSt8__invokeIRZN5QTest8qCompareI7QStringA12_cEEbRKT_RKT0_PKcSB_SB_iEUlvE0_JEENSt15__invoke_resultIS4_JDpT0_EE4typeEOS4_DpOSF_
FN:90,_ZSt8__invokeIRZN5QTest8qCompareI7QStringA12_cEEbRKT_RKT0_PKcSB_SB_iEUlvE_JEENSt15__invoke_resultIS4_JDpT0_EE4typeEOS4_DpOSF_
FNDA:0,_ZSt8__invokeIRZN5QTest8qCompareI7QStringA12_cEEbRKT_RKT0_PKcSB_SB_iEUlvE_JEENSt15__invoke_resultIS4_JDpT0_EE4typeEOS4_DpOSF_
FN:90,_ZSt8__invokeIRZN5QTest8qCompareI7QStringA14_cEEbRKT_RKT0_PKcSB_SB_iEUlvE0_JEENSt15__invoke_resultIS4_JDpT0_EE4typeEOS4_DpOSF_
FNDA:0,_ZSt8__invokeIRZN5QTest8qCompareI7QStringA14_cEEbRKT_RKT0_PKcSB_SB_iEUlvE0_JEENSt15__invoke_resultIS4_JDpT0_EE4typeEOS4_DpOSF_
FN:90,_ZSt8__invokeIRZN5QTest8qCompareI7QStringA14_cEEbRKT_RKT0_PKcSB_SB_iEUlvE_JEENSt15__invoke_resultIS4_JDpT0_EE4typeEOS4_DpOSF_
FNDA:0,_ZSt8__invokeIRZN5QTest8qCompareI7QStringA14_cEEbRKT_RKT0_PKcSB_SB_iEUlvE_JEENSt15__invoke_resultIS4_JDpT0_EE4typeEOS4_DpOSF_
FN:90,_ZSt8__invokeIRZN5QTest8qCompareI7QStringA6_cEEbRKT_RKT0_PKcSB_SB_iEUlvE0_JEENSt15__invoke_resultIS4_JDpT0_EE4typeEOS4_DpOSF_
FNDA:0,_ZSt8__invokeIRZN5QTest8qCompareI7QStringA6_cEEbRKT_RKT0_PKcSB_SB_iEUlvE0_JEENSt15__invoke_resultIS4_JDpT0_EE4typeEOS4_DpOSF_
FN:90,_ZSt8__invokeIRZN5QTest8qCompareI7QStringA6_cEEbRKT_RKT0_PKcSB_SB_iEUlvE_JEENSt15__invoke_resultIS4_JDpT0_EE4typeEOS4_DpOSF_
FNDA:0,_ZSt8__invokeIRZN5QTest8qCompareI7QStringA6_cEEbRKT_RKT0_PKcSB_SB_iEUlvE_JEENSt15__invoke_resultIS4_JDpT0_EE4typeEOS4_DpOSF_
FN:90,_ZSt8__invokeIRZN5QTest8qCompareI7QStringA3_cEEbRKT_RKT0_PKcSB_SB_iEUlvE0_JEENSt15__invoke_resultIS4_JDpT0_EE4typeEOS4_DpOSF_
FNDA:0,_ZSt8__invokeIRZN5QTest8qCompareI7QStringA3_cEEbRKT_RKT0_PKcSB_SB_iEUlvE0_JEENSt15__invoke_resultIS4_JDpT0_EE4typeEOS4_DpOSF_
FN:90,_ZSt8__invokeIRZN5QTest8qCompareI7QStringA3_cEEbRKT_RKT0_PKcSB_SB_iEUlvE_JEENSt15__invoke_resultIS4_JDpT0_EE4typeEOS4_DpOSF_
FNDA:0,_ZSt8__invokeIRZN5QTest8qCompareI7QStringA3_cEEbRKT_RKT0_PKcSB_SB_iEUlvE_JEENSt15__invoke_resultIS4_JDpT0_EE4typeEOS4_DpOSF_
FN:90,_ZSt8__invokeIRZN5QTest8qCompareI7QStringA13_cEEbRKT_RKT0_PKcSB_SB_iEUlvE_JEENSt15__invoke_resultIS4_JDpT0_EE4typeEOS4_DpOSF_
FNDA:0,_ZSt8__invokeIRZN5QTest8qCompareI7QStringA13_cEEbRKT_RKT0_PKcSB_SB_iEUlvE_JEENSt15__invoke_resultIS4_JDpT0_EE4typeEOS4_DpOSF_
FN:90,_ZSt8__invokeIRZN5QTest8qCompareI7QStringA13_cEEbRKT_RKT0_PKcSB_SB_iEUlvE0_JEENSt15__invoke_resultIS4_JDpT0_EE4typeEOS4_DpOSF_
FNDA:0,_ZSt8__invokeIRZN5QTest8qCompareI7QStringA13_cEEbRKT_RKT0_PKcSB_SB_iEUlvE0_JEENSt15__invoke_resultIS4_JDpT0_EE4typeEOS4_DpOSF_
FN:90,_ZSt8__invokeIRZN5QTest8qCompareI7QStringA8_cEEbRKT_RKT0_PKcSB_SB_iEUlvE_JEENSt15__invoke_resultIS4_JDpT0_EE4typeEOS4_DpOSF_
FNDA:0,_ZSt8__invokeIRZN5QTest8qCompareI7QStringA8_cEEbRKT_RKT0_PKcSB_SB_iEUlvE_JEENSt15__invoke_resultIS4_JDpT0_EE4typeEOS4_DpOSF_
FN:90,_ZSt8__invokeIRZN5QTest8qCompareI7QStringA8_cEEbRKT_RKT0_PKcSB_SB_iEUlvE0_JEENSt15__invoke_resultIS4_JDpT0_EE4typeEOS4_DpOSF_
FNDA:0,_ZSt8__invokeIRZN5QTest8qCompareI7QStringA8_cEEbRKT_RKT0_PKcSB_SB_iEUlvE0_JEENSt15__invoke_resultIS4_JDpT0_EE4typeEOS4_DpOSF_
FN:90,_ZSt8__invokeIRZN5QTest8qCompareI7QStringA7_cEEbRKT_RKT0_PKcSB_SB_iEUlvE_JEENSt15__invoke_resultIS4_JDpT0_EE4typeEOS4_DpOSF_
FNDA:0,_ZSt8__invokeIRZN5QTest8qCompareI7QStringA7_cEEbRKT_RKT0_PKcSB_SB_iEUlvE_JEENSt15__invoke_resultIS4_JDpT0_EE4typeEOS4_DpOSF_
FN:90,_ZSt8__invokeIRZN5QTest8qCompareI7QStringA7_cEEbRKT_RKT0_PKcSB_SB_iEUlvE0_JEENSt15__invoke_resultIS4_JDpT0_EE4typeEOS4_DpOSF_
FNDA:0,_ZSt8__invokeIRZN5QTest8qCompareI7QStringA7_cEEbRKT_RKT0_PKcSB_SB_iEUlvE0_JEENSt15__invoke_resultIS4_JDpT0_EE4typeEOS4_DpOSF_
FN:90,_ZSt8__invokeIRZN5QTest8qCompareIbbEEbRKT_RKT0_PKcS9_S9_iEUlvE_JEENSt15__invoke_resultIS2_JDpT0_EE4typeEOS2_DpOSD_
FNDA:0,_ZSt8__invokeIRZN5QTest8qCompareIbbEEbRKT_RKT0_PKcS9_S9_iEUlvE_JEENSt15__invoke_resultIS2_JDpT0_EE4typeEOS2_DpOSD_
FN:90,_ZSt8__invokeIRZN5QTest8qCompareIbbEEbRKT_RKT0_PKcS9_S9_iEUlvE0_JEENSt15__invoke_resultIS2_JDpT0_EE4typeEOS2_DpOSD_
FNDA:0,_ZSt8__invokeIRZN5QTest8qCompareIbbEEbRKT_RKT0_PKcS9_S9_iEUlvE0_JEENSt15__invoke_resultIS2_JDpT0_EE4typeEOS2_DpOSD_
FN:90,_ZSt8__invokeIRZN5QTest8qCompareI7QStringA10_cEEbRKT_RKT0_PKcSB_SB_iEUlvE_JEENSt15__invoke_resultIS4_JDpT0_EE4typeEOS4_DpOSF_
FNDA:0,_ZSt8__invokeIRZN5QTest8qCompareI7QStringA10_cEEbRKT_RKT0_PKcSB_SB_iEUlvE_JEENSt15__invoke_resultIS4_JDpT0_EE4typeEOS4_DpOSF_
FN:90,_ZSt8__invokeIRZN5QTest8qCompareI7QStringA10_cEEbRKT_RKT0_PKcSB_SB_iEUlvE0_JEENSt15__invoke_resultIS4_JDpT0_EE4typeEOS4_DpOSF_
FNDA:0,_ZSt8__invokeIRZN5QTest8qCompareI7QStringA10_cEEbRKT_RKT0_PKcSB_SB_iEUlvE0_JEENSt15__invoke_resultIS4_JDpT0_EE4typeEOS4_DpOSF_
DA:60,0
DA:61,0
DA:60,0
DA:61,0
DA:60,0
DA:61,0
DA:60,0
DA:61,0
DA:60,0
DA:61,0
DA:60,0
DA:61,0
DA:60,0
DA:61,0
DA:60,0
DA:61,0
DA:60,0
DA:61,0
DA:60,0
DA:61,0
DA:60,0
DA:61,0
DA:60,0
DA:61,0
DA:60,0
DA:61,0
DA:60,0
DA:61,0
DA:60,0
DA:61,0
DA:60,0
DA:61,0
DA:60,0
DA:61,0
DA:60,0
DA:61,0
DA:60,0
DA:61,0
DA:60,0
DA:61,0
DA:90,0
DA:96,0
DA:97,0
DA:90,0
DA:96,0
DA:97,0
DA:90,0
DA:96,0
DA:97,0
DA:90,0
DA:96,0
DA:97,0
DA:90,0
DA:96,0
DA:97,0
DA:90,0
DA:96,0
DA:97,0
DA:90,0
DA:96,0
DA:97,0
DA:90,0
DA:96,0
DA:97,0
DA:90,0
DA:96,0
DA:97,0
DA:90,0
DA:96,0
DA:97,0
DA:90,0
DA:96,0
DA:97,0
DA:90,0
DA:96,0
DA:97,0
DA:90,0
DA:96,0
DA:97,0
DA:90,0
DA:96,0
DA:97,0
DA:90,0
DA:96,0
DA:97,0
DA:90,0
DA:96,0
DA:97,0
DA:90,0
DA:96,0
DA:97,0
DA:90,0
DA:96,0
DA:97,0
DA:90,0
DA:96,0
DA:97,0
DA:90,0
DA:96,0
DA:97,0
end_of_record
SF:C:
Users
USER
Documents
UFMG
6
teste
testes_tp
build/C:/Qt/6.6.0/mingw_64/include/QtCore/qbytearrayview.h
FN:67,_ZN9QtPrivateL19lengthHelperPointerIcEExPKT_
FNDA:954,_ZN9QtPrivateL19lengthHelperPointerIcEExPKT_
FN:126,_ZN14QByteArrayView10castHelperEPKc
FNDA:1251,_ZN14QByteArrayView10castHelperEPKc
FN:136,_ZN14QByteArrayViewC1IcLb1EEEPKT_x
FNDA:1251,_ZN14QByteArrayViewC1IcLb1EEEPKT_x
FN:149,_ZN14QByteArrayViewC1IPKcLb1EEERKT_
FNDA:954,_ZN14QByteArrayViewC1IPKcLb1EEERKT_
DA:67,954
DA:69,954
DA:126,1251
DA:127,1251
DA:136,1251
DA:137,1251
DA:138,1251
DA:149,954
DA:151,954
end_of_record
SF:C:
Users
USER
Documents
UFMG
6
teste
testes_tp
build/C:/Qt/Tools/mingw1120_64/lib/gcc/x86_64-w64-mingw32/11.2.0/include/c++/initializer_list
FN:71,_ZNKSt16initializer_listI7QStringE4sizeEv
FNDA:432,_ZNKSt16initializer_listI7QStringE4sizeEv
FN:75,_ZNKSt16initializer_listI7QStringE5beginEv
FNDA:288,_ZNKSt16initializer_listI7QStringE5beginEv
FN:79,_ZNKSt16initializer_listI7QStringE3endEv
FNDA:144,_ZNKSt16initializer_listI7QStringE3endEv
DA:71,432
DA:75,288
DA:79,144
end_of_record
SF:C:
Users
USER
Documents
UFMG
6
teste
testes_tp
build/C:/Qt/6.6.0/mingw_64/include/QtCore/qfunctionaltools_impl.h
FN:38,_ZNR9QtPrivate6detail14StorageByValueIM7QWidgetFvvEvE6objectEv
FNDA:14,_ZNR9QtPrivate6detail14StorageByValueIM7QWidgetFvvEvE6objectEv
DA:38,14
end_of_record
SF:C:
Users
USER
Documents
UFMG
6
teste
testes_tp
build/C:/Qt/Tools/mingw1120_64/lib/gcc/x86_64-w64-mingw32/11.2.0/include/c++/bits/stl_pair.h
FN:352,_ZNSt4pairIP15QTypedArrayDataI7QStringEPS1_EC1IS3_S4_Lb1EEEOT_OT0_
FNDA:177,_ZNSt4pairIP15QTypedArrayDataI7QStringEPS1_EC1IS3_S4_Lb1EEEOT_OT0_
FN:567,_ZSt9make_pairIP15QTypedArrayDataI7QStringEPS1_ESt4pairINSt25__strip_reference_wrapperINSt5decayIT_E4typeEE6__typeENS6_INS7_IT0_E4typeEE6__typeEEOS8_OSD_
FNDA:177,_ZSt9make_pairIP15QTypedArrayDataI7QStringEPS1_ESt4pairINSt25__strip_reference_wrapperINSt5decayIT_E4typeEE6__typeENS6_INS7_IT0_E4typeEE6__typeEEOS8_OSD_
DA:352,177
DA:353,177
DA:567,177
DA:572,177
end_of_record
SF:C:
Users
USER
Documents
UFMG
6
teste
testes_tp
build/C:/Qt/6.6.0/mingw_64/include/QtGui/qwindow.h
FN:205,_ZNK7QWindow5widthEv
FNDA:0,_ZNK7QWindow5widthEv
FN:206,_ZNK7QWindow6heightEv
FNDA:0,_ZNK7QWindow6heightEv
DA:205,0
DA:206,0
end_of_record
SF:C:
Users
USER
Documents
UFMG
6
teste
testes_tp
build/C:/Qt/Tools/mingw1120_64/lib/gcc/x86_64-w64-mingw32/11.2.0/include/c++/atomic
FN:825,_ZNSt6atomicIiEC1Ei
FNDA:14,_ZNSt6atomicIiEC1Ei
DA:825,14
end_of_record
SF:C:
Users
USER
Documents
UFMG
6
teste
testes_tp
build/C:/Qt/6.6.0/mingw_64/include/QtWidgets/qwidget.h
FN:874,_ZNK7QWidget9isVisibleEv
FNDA:14,_ZNK7QWidget9isVisibleEv
FN:889,_ZNK7QWidget4rectEv
FNDA:6,_ZNK7QWidget4rectEv
FN:910,_ZNK7QWidget13testAttributeEN2Qt15WidgetAttributeE
FNDA:14,_ZNK7QWidget13testAttributeEN2Qt15WidgetAttributeE
DA:874,14
DA:875,14
DA:889,6
DA:890,6
DA:910,14
DA:912,14
DA:913,14
DA:914,0
end_of_record
SF:C:
Users
USER
Documents
UFMG
6
teste
testes_tp
build/debug/tst_testes_de_unidade.moc
FN:536,_ZN17testes_de_unidade18qt_static_metacallEP7QObjectN11QMetaObject4CallEiPPv
FNDA:55,_ZN17testes_de_unidade18qt_static_metacallEP7QObjectN11QMetaObject4CallEiPPv
FN:603,_ZNK17testes_de_unidade10metaObjectEv
FNDA:63,_ZNK17testes_de_unidade10metaObjectEv
FN:608,_ZN17testes_de_unidade11qt_metacastEPKc
FNDA:0,_ZN17testes_de_unidade11qt_metacastEPKc
FN:616,_ZN17testes_de_unidade11qt_metacallEN11QMetaObject4CallEiPPv
FNDA:0,_ZN17testes_de_unidade11qt_metacallEN11QMetaObject4CallEiPPv
DA:536,55
DA:538,55
DA:539,55
DA:541,55
DA:542,1
DA:543,1
DA:544,1
DA:545,1
DA:546,1
DA:547,1
DA:548,1
DA:549,1
DA:550,1
DA:551,1
DA:552,1
DA:553,1
DA:554,1
DA:555,1
DA:556,1
DA:557,1
DA:558,1
DA:559,1
DA:560,1
DA:561,1
DA:562,1
DA:563,1
DA:564,1
DA:565,1
DA:566,1
DA:567,1
DA:568,1
DA:569,1
DA:570,1
DA:571,1
DA:572,1
DA:573,1
DA:574,1
DA:575,1
DA:576,1
DA:577,1
DA:578,1
DA:579,1
DA:580,1
DA:581,1
DA:582,1
DA:583,1
DA:584,1
DA:585,1
DA:586,1
DA:587,1
DA:588,1
DA:589,1
DA:590,1
DA:591,1
DA:592,1
DA:593,1
DA:594,1
DA:595,1
DA:596,1
DA:597,55
DA:601,55
DA:603,63
DA:605,63
DA:608,0
DA:610,0
DA:611,0
DA:612,0
DA:613,0
DA:616,0
DA:618,0
DA:619,0
DA:620,0
DA:621,0
DA:622,0
DA:623,0
DA:624,0
DA:625,0
DA:626,0
DA:627,0
DA:628,0
DA:630,0
end_of_record
SF:C:
Users
USER
Documents
UFMG
6
teste
testes_tp
build/C:/Qt/6.6.0/mingw_64/include/QtCore/qarraydata.h
FN:43,_ZNK10QArrayData22constAllocatedCapacityEv
FNDA:393,_ZNK10QArrayData22constAllocatedCapacityEv
FN:49,_ZN10QArrayData3refEv
FNDA:1674,_ZN10QArrayData3refEv
FN:56,_ZN10QArrayData5derefEv
FNDA:4095,_ZN10QArrayData5derefEv
FN:61,_ZNK10QArrayData8isSharedEv
FNDA:183,_ZNK10QArrayData8isSharedEv
FN:101,_ZN15QTypedArrayDataI7QStringE8allocateExN10QArrayData16AllocationOptionE
FNDA:155,_ZN15QTypedArrayDataI7QStringE8allocateExN10QArrayData16AllocationOptionE
FN:127,_ZN15QTypedArrayDataI7QStringE9dataStartEP10QArrayDatax
FNDA:309,_ZN15QTypedArrayDataI7QStringE9dataStartEP10QArrayDatax
DA:43,393
DA:45,393
DA:49,1674
DA:51,1674
DA:52,1674
DA:56,4095
DA:58,4095
DA:61,183
DA:63,183
DA:101,155
DA:105,155
DA:107,155
DA:109,155
DA:127,309
DA:130,309
DA:131,309
DA:132,309
DA:133,309
end_of_record
SF:C:
Users
USER
Documents
UFMG
6
teste
testes_tp
build/C:/Qt/6.6.0/mingw_64/include/QtCore/qpointer.h
FN:33,_ZN8QPointerI7QWidgetEC1EPS0_
FNDA:172,_ZN8QPointerI7QWidgetEC1EPS0_
FN:33,_ZN8QPointerI7QWindowEC1EPS0_
FNDA:0,_ZN8QPointerI7QWindowEC1EPS0_
FN:63,_ZNK8QPointerI7QWidgetE4dataEv
FNDA:172,_ZNK8QPointerI7QWidgetE4dataEv
FN:63,_ZNK8QPointerI7QWindowE4dataEv
FNDA:0,_ZNK8QPointerI7QWindowE4dataEv
FN:71,_ZNK8QPointerI7QWidgetEcvPS0_Ev
FNDA:172,_ZNK8QPointerI7QWidgetEcvPS0_Ev
FN:71,_ZNK8QPointerI7QWindowEcvPS0_Ev
FNDA:0,_ZNK8QPointerI7QWindowEcvPS0_Ev
DA:33,172
DA:33,0
DA:63,172
DA:64,172
DA:63,0
DA:64,0
DA:71,172
DA:72,172
DA:71,0
DA:72,0
end_of_record
SF:C:
Users
USER
Documents
UFMG
6
teste
testes_tp
build/C:/Qt/6.6.0/mingw_64/include/QtCore/qnamespace.h
FN:1059,_ZN2QtorENS_16KeyboardModifierES0_
FNDA:0,_ZN2QtorENS_16KeyboardModifierES0_
DA:1059,0
end_of_record
